(lp1
(lp2
S'Morgan'
p3
aS'noise'
p4
aI0
aF0.00019693374633789062
aF0.23999999999999999
aF0.93999999999999995
aF-0.14000000000000001
aI-117
aI94
aI149
aF-55.200000000000003
aF-224.47999999999999
aF226.31999999999999
aa(lp5
g3
ag4
aI0
aF0.34647488594055176
aF0.23999999999999999
aF0.95999999999999996
aF-0.14000000000000001
aI126
aI-776
aI-288
aF-70.840000000000003
aF-226.31999999999999
aF218.96000000000001
aa(lp6
g3
ag4
aI0
aF0.47018599510192871
aF0.23000000000000001
aF0.96999999999999997
aF-0.14000000000000001
aI588
aI-1424
aI-522
aF-57.960000000000001
aF-226.31999999999999
aF223.56
aa(lp7
g3
ag4
aI0
aF0.62248992919921875
aF0.23999999999999999
aF0.94999999999999996
aF-0.14000000000000001
aI1034
aI408
aI-563
aF-53.359999999999999
aF-218.96000000000001
aF226.31999999999999
aa(lp8
g3
ag4
aI0
aF0.72251796722412109
aF0.23000000000000001
aF0.93999999999999995
aF-0.13
aI723
aI-14
aI273
aF-52.439999999999998
aF-216.19999999999999
aF233.68000000000001
aa(lp9
g3
ag4
aI0
aF0.8390200138092041
aF0.20999999999999999
aF0.93000000000000005
aF-0.12
aI-173
aI-198
aI142
aF-52.439999999999998
aF-215.28
aF236.44
aa(lp10
g3
ag4
aI0
aF0.96755599975585938
aF0.20000000000000001
aF0.93999999999999995
aF-0.13
aI-448
aI805
aI-667
aF-51.520000000000003
aF-216.19999999999999
aF230.91999999999999
aa(lp11
g3
ag4
aI0
aF1.1224608421325684
aF0.20999999999999999
aF0.94999999999999996
aF-0.14000000000000001
aI-400
aI1974
aI-540
aF-54.280000000000001
aF-218.96000000000001
aF229.08000000000001
aa(lp12
g3
ag4
aI0
aF1.2214548587799072
aF0.22
aF0.96999999999999997
aF-0.14000000000000001
aI-350
aI1960
aI-176
aF-62.560000000000002
aF-225.40000000000001
aF221.72
aa(lp13
g3
ag4
aI0
aF1.3251039981842041
aF0.23999999999999999
aF0.95999999999999996
aF-0.14999999999999999
aI6
aI728
aI588
aF-72.680000000000007
aF-224.47999999999999
aF216.19999999999999
aa(lp14
g3
ag4
aI0
aF1.4377248287200928
aF0.23999999999999999
aF0.94999999999999996
aF-0.14999999999999999
aI401
aI34
aI337
aF-76.359999999999999
aF-219.88
aF214.36000000000001
aa(lp15
g3
ag4
aI0
aF1.5699489116668701
aF0.23000000000000001
aF0.96999999999999997
aF-0.14999999999999999
aI638
aI-340
aI655
aF-79.120000000000005
aF-215.28
aF219.88
aa(lp16
g3
ag4
aI0
aF1.72198486328125
aF0.23000000000000001
aF0.96999999999999997
aF-0.16
aI635
aI-387
aI31
aF-76.359999999999999
aF-209.75999999999999
aF227.24000000000001
aa(lp17
g3
ag4
aI0
aF1.8765130043029785
aF0.23999999999999999
aF0.93999999999999995
aF-0.16
aI936
aI-863
aI-496
aF-72.680000000000007
aF-208.84
aF226.31999999999999
aa(lp18
g3
ag4
aI0
aF2.0220458507537842
aF0.23999999999999999
aF0.93000000000000005
aF-0.14999999999999999
aI774
aI581
aI128
aF-69
aF-204.24000000000001
aF236.44
aa(lp19
g3
ag4
aI0
aF2.1224279403686523
aF0.23999999999999999
aF0.93000000000000005
aF-0.16
aI-218
aI160
aI316
aF-73.599999999999994
aF-202.40000000000001
aF234.59999999999999
aa(lp20
g3
ag4
aI0
aF2.2218790054321289
aF0.23999999999999999
aF0.93999999999999995
aF-0.17000000000000001
aI-580
aI-436
aI-58
aF-75.439999999999998
aF-207
aF232.75999999999999
aa(lp21
g3
ag4
aI0
aF2.322274923324585
aF0.23999999999999999
aF0.93999999999999995
aF-0.17000000000000001
aI-515
aI-117
aI225
aF-72.680000000000007
aF-206.08000000000001
aF231.84
aa(lp22
g3
ag4
aI0
aF2.4217488765716553
aF0.23000000000000001
aF0.93000000000000005
aF-0.17999999999999999
aI-356
aI-597
aI299
aF-68.079999999999998
aF-208.84
aF230.91999999999999
aa(lp23
g3
ag4
aI0
aF2.5375299453735352
aF0.23000000000000001
aF0.93999999999999995
aF-0.17000000000000001
aI-17
aI825
aI659
aF-75.439999999999998
aF-207
aF230.91999999999999
aa(lp24
g3
ag4
aI0
aF2.6613638401031494
aF0.23999999999999999
aF0.95999999999999996
aF-0.17999999999999999
aI-348
aI-211
aI405
aF-80.959999999999994
aF-209.75999999999999
aF229.08000000000001
aa(lp25
g3
ag4
aI0
aF2.8219869136810303
aF0.23999999999999999
aF0.93999999999999995
aF-0.19
aI344
aI-674
aI118
aF-78.200000000000003
aF-207
aF225.40000000000001
aa(lp26
g3
ag4
aI0
aF2.9224720001220703
aF0.23999999999999999
aF0.93999999999999995
aF-0.17000000000000001
aI1076
aI1256
aI1133
aF-80.040000000000006
aF-202.40000000000001
aF230.91999999999999
aa(lp27
g3
ag4
aI0
aF3.0239229202270508
aF0.28999999999999998
aF0.97999999999999998
aF-0.19
aI427
aI-353
aI-194
aF-91.079999999999998
aF-194.12
aF228.16
aa(lp28
g3
ag4
aI0
aF3.1514840126037598
aF0.29999999999999999
aF0.94999999999999996
aF-0.20999999999999999
aI421
aI-3365
aI554
aF-79.120000000000005
aF-191.36000000000001
aF241.03999999999999
aa(lp29
g3
ag4
aI0
aF3.2601099014282227
aF0.28999999999999998
aF0.91000000000000003
aF-0.22
aI1255
aI-2585
aI271
aF-64.400000000000006
aF-185.84
aF250.24000000000001
aa(lp30
g3
ag4
aI0
aF3.4224867820739746
aF0.23999999999999999
aF0.93000000000000005
aF-0.19
aI1221
aI-1318
aI647
aF-52.439999999999998
aF-177.56
aF261.27999999999997
aa(lp31
g3
ag4
aI0
aF3.5217769145965576
aF0.20999999999999999
aF0.92000000000000004
aF-0.20000000000000001
aI534
aI531
aI405
aF-46
aF-168.36000000000001
aF269.56
aa(lp32
g3
ag4
aI0
aF3.6289019584655762
aF0.20999999999999999
aF0.88
aF-0.23000000000000001
aI359
aI466
aI61
aF-51.520000000000003
aF-161.91999999999999
aF269.56
aa(lp33
g3
ag4
aI0
aF3.7801837921142578
aF0.23999999999999999
aF0.87
aF-0.26000000000000001
aI210
aI1508
aI406
aF-53.359999999999999
aF-164.68000000000001
aF268.63999999999999
aa(lp34
g3
ag4
aI0
aF3.9221248626708984
aF0.28000000000000003
aF0.88
aF-0.27000000000000002
aI-59
aI4557
aI291
aF-69
aF-159.16
aF265.88
aa(lp35
g3
ag4
aI0
aF4.0215229988098145
aF0.32000000000000001
aF0.90000000000000002
aF-0.27000000000000002
aI-1890
aI2529
aI-1398
aF-101.2
aF-164.68000000000001
aF248.40000000000001
aa(lp36
g3
ag4
aI0
aF4.1224679946899414
aF0.31
aF0.89000000000000001
aF-0.23999999999999999
aI-1757
aI589
aI-1959
aF-101.2
aF-178.47999999999999
aF238.28
aa(lp37
g3
ag4
aI0
aF4.2402768135070801
aF0.34000000000000002
aF0.89000000000000001
aF-0.20999999999999999
aI-1118
aI1848
aI-985
aF-97.519999999999996
aF-195.96000000000001
aF225.40000000000001
aa(lp38
g3
ag4
aI0
aF4.4339678287506104
aF0.33000000000000002
aF0.91000000000000003
aF-0.20000000000000001
aI-442
aI2448
aI-121
aF-103.95999999999999
aF-204.24000000000001
aF214.36000000000001
aa(lp39
g3
ag4
aI0
aF4.5223197937011719
aF0.34999999999999998
aF1
aF-0.17000000000000001
aI252
aI-2320
aI-204
aF-113.16
aF-203.31999999999999
aF211.59999999999999
aa(lp40
g3
ag4
aI0
aF4.621992826461792
aF0.26000000000000001
aF1
aF-0.14999999999999999
aI523
aI35
aI380
aF-103.95999999999999
aF-198.72
aF222.63999999999999
aa(lp41
g3
ag4
aI0
aF4.7351570129394531
aF0.28000000000000003
aF0.93999999999999995
aF-0.17999999999999999
aI582
aI783
aI-245
aF-111.31999999999999
aF-193.19999999999999
aF219.88
aa(lp42
g3
ag4
aI0
aF4.8801538944244385
aF0.29999999999999999
aF0.87
aF-0.19
aI546
aI-1292
aI-299
aF-112.23999999999999
aF-191.36000000000001
aF220.80000000000001
aa(lp43
g3
ag4
aI0
aF5.0502979755401611
aF0.28000000000000003
aF0.89000000000000001
aF-0.17000000000000001
aI296
aI-239
aI247
aF-110.40000000000001
aF-193.19999999999999
aF230
aa(lp44
g3
ag4
aI0
aF5.1222949028015137
aF0.28000000000000003
aF0.94999999999999996
aF-0.17000000000000001
aI-589
aI3025
aI443
aF-112.23999999999999
aF-187.68000000000001
aF227.24000000000001
aa(lp45
g3
ag4
aI0
aF5.2288827896118164
aF0.28000000000000003
aF0.92000000000000004
aF-0.17000000000000001
aI-600
aI6082
aI1192
aF-141.68000000000001
aF-188.59999999999999
aF211.59999999999999
aa(lp46
g3
ag4
aI0
aF5.3526837825775146
aF0.31
aF0.91000000000000003
aF-0.14000000000000001
aI-691
aI4396
aI492
aF-175.72
aF-187.68000000000001
aF189.52000000000001
aa(lp47
g3
ag4
aI0
aF5.4763989448547363
aF0.32000000000000001
aF0.93000000000000005
aF-0.11
aI-232
aI4639
aI284
aF-200.56
aF-187.68000000000001
aF164.68000000000001
aa(lp48
g3
ag4
aI0
aF5.6223719120025635
aF0.35999999999999999
aF0.96999999999999997
aF-0.10000000000000001
aI92
aI3186
aI532
aF-223.56
aF-184
aF147.19999999999999
aa(lp49
g3
ag4
aI0
aF5.7239699363708496
aF0.37
aF0.98999999999999999
aF-0.10000000000000001
aI185
aI1715
aI433
aF-233.68000000000001
aF-182.16
aF135.24000000000001
aa(lp50
g3
ag4
aI0
aF5.8450579643249512
aF0.38
aF0.96999999999999997
aF-0.10000000000000001
aI1576
aI4339
aI-572
aF-243.80000000000001
aF-177.56
aF125.12
aa(lp51
g3
ag4
aI0
aF5.9964909553527832
aF0.40000000000000002
aF0.93000000000000005
aF-0.050000000000000003
aI2342
aI8847
aI-32
aF-255.75999999999999
aF-173.88
aF112.23999999999999
aa(lp52
g3
ag4
aI0
aF6.1220309734344482
aF0.45000000000000001
aF0.90000000000000002
aF-0.02
aI2054
aI10242
aI443
aF-289.80000000000001
aF-164.68000000000001
aF69.920000000000002
aa(lp53
g3
ag4
aI0
aF6.2327167987823486
aF0.46000000000000002
aF0.90000000000000002
aF0.029999999999999999
aI737
aI8846
aI1239
aF-314.63999999999999
aF-156.40000000000001
aF19.32
aa(lp54
g3
ag4
aI0
aF6.3514199256896973
aF0.46000000000000002
aF0.90000000000000002
aF0.070000000000000007
aI-318
aI10926
aI1011
aF-332.12
aF-147.19999999999999
aF-45.079999999999998
aa(lp55
g3
ag4
aI0
aF6.5225138664245605
aF0.48999999999999999
aF0.88
aF0.10000000000000001
aI-570
aI5086
aI267
aF-333.95999999999998
aF-142.59999999999999
aF-113.16
aa(lp56
g3
ag4
aI0
aF6.6224498748779297
aF0.45000000000000001
aF0.89000000000000001
aF0.12
aI-114
aI-870
aI-618
aF-329.36000000000001
aF-139.84
aF-128.80000000000001
aa(lp57
g3
ag4
aI0
aF6.7220809459686279
aF0.47999999999999998
aF0.90000000000000002
aF0.13
aI-90
aI-4418
aI-930
aF-330.27999999999997
aF-150.88
aF-113.16
aa(lp58
g3
ag4
aI0
aF6.8352007865905762
aF0.46999999999999997
aF0.92000000000000004
aF0.13
aI225
aI-4642
aI-1259
aF-322.92000000000002
aF-159.16
aF-78.200000000000003
aa(lp59
g3
ag4
aI0
aF6.985123872756958
aF0.46000000000000002
aF0.92000000000000004
aF0.10000000000000001
aI438
aI-3236
aI-1008
aF-320.16000000000003
aF-167.44
aF-51.520000000000003
aa(lp60
g3
ag4
aI0
aF7.1219708919525146
aF0.42999999999999999
aF0.92000000000000004
aF0.089999999999999997
aI123
aI-1401
aI-330
aF-313.72000000000003
aF-172.96000000000001
aF-36.799999999999997
aa(lp61
g3
ag4
aI0
aF7.2229700088500977
aF0.44
aF0.92000000000000004
aF0.070000000000000007
aI-73
aI-3525
aI-289
aF-312.80000000000001
aF-175.72
aF-27.600000000000001
aa(lp62
g3
ag4
aI0
aF7.3214588165283203
aF0.41999999999999998
aF0.93000000000000005
aF0.059999999999999998
aI-153
aI-4481
aI-405
aF-305.44
aF-179.40000000000001
aF-3.6800000000000002
aa(lp63
g3
ag4
aI0
aF7.4450697898864746
aF0.40000000000000002
aF0.93000000000000005
aF0.040000000000000001
aI-276
aI-2490
aI-81
aF-297.16000000000003
aF-178.47999999999999
aF20.239999999999998
aa(lp64
g3
ag4
aI0
aF7.6113228797912598
aF0.38
aF0.93999999999999995
aF0.029999999999999999
aI-208
aI-169
aI-169
aF-290.72000000000003
aF-181.24000000000001
aF33.119999999999997
aa(lp65
g3
ag4
aI0
aF7.7223398685455322
aF0.38
aF0.93999999999999995
aF0.01
aI-195
aI-4605
aI-421
aF-289.80000000000001
aF-186.75999999999999
aF41.399999999999999
aa(lp66
g3
ag4
aI0
aF7.822227954864502
aF0.37
aF0.94999999999999996
aF-0.01
aI124
aI-1908
aI-150
aF-272.31999999999999
aF-188.59999999999999
aF64.400000000000006
aa(lp67
g3
ag4
aI0
aF7.9375929832458496
aF0.38
aF0.94999999999999996
aF-0.029999999999999999
aI328
aI-2515
aI-51
aF-264.04000000000002
aF-190.44
aF81.879999999999995
aa(lp68
g3
ag4
aI0
aF8.0565059185028076
aF0.37
aF0.94999999999999996
aF-0.050000000000000003
aI434
aI-1932
aI399
aF-259.44
aF-188.59999999999999
aF93.840000000000003
aa(lp69
g3
ag4
aI0
aF8.1800758838653564
aF0.35999999999999999
aF0.93000000000000005
aF-0.059999999999999998
aI302
aI-491
aI803
aF-257.60000000000002
aF-185.84
aF99.359999999999999
aa(lp70
g3
ag4
aI0
aF8.3222057819366455
aF0.35999999999999999
aF0.92000000000000004
aF-0.080000000000000002
aI165
aI-609
aI788
aF-257.60000000000002
aF-182.16
aF103.95999999999999
aa(lp71
g3
ag4
aI0
aF8.423914909362793
aF0.35999999999999999
aF0.93000000000000005
aF-0.080000000000000002
aI-16
aI176
aI559
aF-262.19999999999999
aF-173.88
aF104.88
aa(lp72
g3
ag4
aI0
aF8.5476949214935303
aF0.35999999999999999
aF0.92000000000000004
aF-0.089999999999999997
aI-439
aI-1372
aI117
aF-261.27999999999997
aF-171.12
aF103.95999999999999
aa(lp73
g3
ag4
aI0
aF8.6688327789306641
aF0.37
aF0.92000000000000004
aF-0.089999999999999997
aI-403
aI-453
aI-188
aF-259.44
aF-177.56
aF111.31999999999999
aa(lp74
g3
ag4
aI0
aF8.8223259449005127
aF0.37
aF0.93000000000000005
aF-0.089999999999999997
aI-390
aI-117
aI-115
aF-254.84
aF-181.24000000000001
aF113.16
aa(lp75
g3
ag4
aI0
aF8.9223368167877197
aF0.38
aF0.93000000000000005
aF-0.080000000000000002
aI-289
aI76
aI-69
aF-253
aF-182.16
aF109.48
aa(lp76
g3
ag4
aI0
aF9.0578258037567139
aF0.37
aF0.93000000000000005
aF-0.070000000000000007
aI-214
aI301
aI278
aF-251.16
aF-183.08000000000001
aF107.64
aa(lp77
g3
ag4
aI0
aF9.2219347953796387
aF0.37
aF0.93000000000000005
aF-0.070000000000000007
aI-204
aI-458
aI109
aF-255.75999999999999
aF-182.16
aF106.72
aa(lp78
g3
ag4
aI0
aF9.322199821472168
aF0.38
aF0.93999999999999995
aF-0.080000000000000002
aI-98
aI-1764
aI5
aF-251.16
aF-183.08000000000001
aF114.08
aa(lp79
g3
ag4
aI0
aF9.4215428829193115
aF0.34999999999999998
aF0.93000000000000005
aF-0.10000000000000001
aI-106
aI-5278
aI275
aF-241.03999999999999
aF-184
aF123.28
aa(lp80
g3
ag4
aI0
aF9.5603568553924561
aF0.34999999999999998
aF0.93999999999999995
aF-0.11
aI194
aI-802
aI285
aF-225.40000000000001
aF-185.84
aF148.12
aa(lp81
g3
ag4
aI0
aF9.7222249507904053
aF0.34000000000000002
aF0.93999999999999995
aF-0.11
aI210
aI-3105
aI321
aF-218.96000000000001
aF-181.24000000000001
aF155.47999999999999
aa(lp82
g3
ag4
aI0
aF9.8222839832305908
aF0.29999999999999999
aF0.92000000000000004
aF-0.12
aI381
aI-940
aI35
aF-207
aF-179.40000000000001
aF174.80000000000001
aa(lp83
g3
ag4
aI0
aF9.9222009181976318
aF0.34999999999999998
aF0.91000000000000003
aF-0.14000000000000001
aI83
aI-1423
aI274
aF-194.12
aF-181.24000000000001
aF183.08000000000001
aa(lp84
g3
ag4
aI0
aF10.047634840011597
aF0.34999999999999998
aF0.91000000000000003
aF-0.19
aI134
aI-1303
aI92
aF-188.59999999999999
aF-176.63999999999999
aF189.52000000000001
aa(lp85
g3
ag4
aI0
aF10.17893385887146
aF0.32000000000000001
aF0.92000000000000004
aF-0.20999999999999999
aI-72
aI-1115
aI-70
aF-189.52000000000001
aF-176.63999999999999
aF193.19999999999999
aa(lp86
g3
ag4
aI0
aF10.322250843048096
aF0.31
aF0.92000000000000004
aF-0.20000000000000001
aI-275
aI-1249
aI100
aF-175.72
aF-178.47999999999999
aF195.03999999999999
aa(lp87
g3
ag4
aI0
aF10.421262979507446
aF0.31
aF0.91000000000000003
aF-0.17999999999999999
aI-194
aI-205
aI-33
aF-168.36000000000001
aF-177.56
aF196.88
aa(lp88
g3
ag4
aI0
aF10.522156953811646
aF0.32000000000000001
aF0.92000000000000004
aF-0.17000000000000001
aI-260
aI488
aI-47
aF-173.88
aF-179.40000000000001
aF194.12
aa(lp89
g3
ag4
aI0
aF10.627655982971191
aF0.32000000000000001
aF0.92000000000000004
aF-0.17999999999999999
aI-171
aI140
aI369
aF-180.31999999999999
aF-179.40000000000001
aF190.44
aa(lp90
g3
ag4
aI0
aF10.7516188621521
aF0.33000000000000002
aF0.93000000000000005
aF-0.17999999999999999
aI7
aI563
aI567
aF-182.16
aF-182.16
aF192.28
aa(lp91
g3
ag4
aI0
aF10.890109777450562
aF0.33000000000000002
aF0.92000000000000004
aF-0.17000000000000001
aI181
aI204
aI606
aF-186.75999999999999
aF-178.47999999999999
aF187.68000000000001
aa(lp92
g3
ag4
aI0
aF11.022201776504517
aF0.34000000000000002
aF0.93000000000000005
aF-0.17000000000000001
aI232
aI2413
aI739
aF-195.03999999999999
aF-172.96000000000001
aF184
aa(lp93
g3
ag4
aI0
aF11.121606826782227
aF0.34000000000000002
aF0.92000000000000004
aF-0.14999999999999999
aI142
aI232
aI674
aF-207
aF-169.28
aF178.47999999999999
aa(lp94
g3
ag4
aI0
aF11.247694969177246
aF0.34999999999999998
aF0.91000000000000003
aF-0.14999999999999999
aI126
aI545
aI259
aF-209.75999999999999
aF-166.52000000000001
aF177.56
aa(lp95
g3
ag4
aI0
aF11.360105991363525
aF0.35999999999999999
aF0.92000000000000004
aF-0.14999999999999999
aI-54
aI291
aI-205
aF-212.52000000000001
aF-165.59999999999999
aF177.56
aa(lp96
g3
ag4
aI0
aF11.522151947021484
aF0.35999999999999999
aF0.92000000000000004
aF-0.14999999999999999
aI-286
aI49
aI-539
aF-209.75999999999999
aF-168.36000000000001
aF175.72
aa(lp97
g3
ag4
aI0
aF11.621416807174683
aF0.34999999999999998
aF0.92000000000000004
aF-0.14999999999999999
aI-538
aI-1133
aI-888
aF-208.84
aF-171.12
aF174.80000000000001
aa(lp98
g3
ag4
aI0
aF11.729095935821533
aF0.34999999999999998
aF0.92000000000000004
aF-0.16
aI-253
aI-1884
aI-817
aF-195.03999999999999
aF-179.40000000000001
aF181.24000000000001
aa(lp99
g3
ag4
aI0
aF11.85397481918335
aF0.33000000000000002
aF0.93000000000000005
aF-0.16
aI-77
aI-487
aI-610
aF-182.16
aF-185.84
aF187.68000000000001
aa(lp100
g3
ag4
aI0
aF11.976555824279785
aF0.32000000000000001
aF0.93000000000000005
aF-0.16
aI-294
aI-1653
aI-185
aF-178.47999999999999
aF-188.59999999999999
aF185.84
aa(lp101
g3
ag4
aI0
aF12.125081777572632
aF0.28999999999999998
aF0.93999999999999995
aF-0.16
aI-177
aI-1334
aI54
aF-166.52000000000001
aF-191.36000000000001
aF195.03999999999999
aa(lp102
g3
ag4
aI0
aF12.246351003646851
aF0.28999999999999998
aF0.93999999999999995
aF-0.16
aI130
aI1147
aI-158
aF-170.19999999999999
aF-187.68000000000001
aF194.12
aa(lp103
g3
ag4
aI0
aF12.338958978652954
aF0.27000000000000002
aF0.93000000000000005
aF-0.14999999999999999
aI200
aI-489
aI225
aF-163.75999999999999
aF-192.28
aF197.80000000000001
aa(lp104
g3
ag4
aI0
aF12.462763786315918
aF0.28000000000000003
aF0.93000000000000005
aF-0.16
aI360
aI320
aI689
aF-166.52000000000001
aF-187.68000000000001
aF198.72
aa(lp105
g3
ag4
aI0
aF12.622164964675903
aF0.29999999999999999
aF0.93000000000000005
aF-0.14999999999999999
aI295
aI1337
aI678
aF-172.96000000000001
aF-184
aF196.88
aa(lp106
g3
ag4
aI0
aF12.736576795578003
aF0.32000000000000001
aF0.93000000000000005
aF-0.14999999999999999
aI-137
aI1225
aI547
aF-185.84
aF-182.16
aF193.19999999999999
aa(lp107
g3
ag4
aI0
aF12.831453800201416
aF0.32000000000000001
aF0.93000000000000005
aF-0.14000000000000001
aI-253
aI88
aI82
aF-185.84
aF-178.47999999999999
aF189.52000000000001
aa(lp108
g3
ag4
aI0
aF12.955092906951904
aF0.31
aF0.93000000000000005
aF-0.13
aI-96
aI1752
aI-454
aF-187.68000000000001
aF-179.40000000000001
aF187.68000000000001
aa(lp109
g3
ag4
aI0
aF13.078871011734009
aF0.33000000000000002
aF0.93000000000000005
aF-0.14000000000000001
aI-155
aI1180
aI-819
aF-194.12
aF-182.16
aF176.63999999999999
aa(lp110
g3
ag4
aI0
aF13.222143888473511
aF0.34999999999999998
aF0.93000000000000005
aF-0.14999999999999999
aI56
aI-891
aI-941
aF-188.59999999999999
aF-188.59999999999999
aF176.63999999999999
aa(lp111
g3
ag4
aI0
aF13.322090864181519
aF0.34999999999999998
aF0.93000000000000005
aF-0.16
aI64
aI-571
aI-648
aF-177.56
aF-194.12
aF177.56
aa(lp112
g3
ag4
aI0
aF13.452697992324829
aF0.31
aF0.93999999999999995
aF-0.14999999999999999
aI-123
aI-1338
aI-202
aF-172.96000000000001
aF-197.80000000000001
aF182.16
aa(lp113
g3
ag4
aI0
aF13.565197944641113
aF0.27000000000000002
aF0.93000000000000005
aF-0.16
aI-95
aI-1886
aI-38
aF-161.91999999999999
aF-197.80000000000001
aF189.52000000000001
aa(lp114
g3
ag4
aI0
aF13.722157955169678
aF0.26000000000000001
aF0.93999999999999995
aF-0.16
aI-242
aI-3567
aI338
aF-149.03999999999999
aF-198.72
aF202.40000000000001
aa(lp115
g3
ag4
aI0
aF13.82203197479248
aF0.23999999999999999
aF0.93999999999999995
aF-0.16
aI168
aI-5680
aI552
aF-139.84
aF-199.63999999999999
aF205.16
aa(lp116
g3
ag4
aI0
aF13.98527979850769
aF0.23999999999999999
aF0.93000000000000005
aF-0.17000000000000001
aI192
aI-2110
aI1333
aF-111.31999999999999
aF-197.80000000000001
aF223.56
aa(lp117
g3
ag4
aI0
aF14.122009992599487
aF0.27000000000000002
aF0.93000000000000005
aF-0.19
aI28
aI1842
aI850
aF-115.92
aF-194.12
aF227.24000000000001
aa(lp118
g3
ag4
aI0
aF14.221529960632324
aF0.25
aF0.93000000000000005
aF-0.19
aI-158
aI665
aI151
aF-121.44
aF-191.36000000000001
aF222.63999999999999
aa(lp119
g3
ag4
aI0
aF14.322094917297363
aF0.23999999999999999
aF0.93999999999999995
aF-0.19
aI-15
aI4310
aI-196
aF-133.40000000000001
aF-186.75999999999999
aF219.88
aa(lp120
g3
ag4
aI0
aF14.422688007354736
aF0.28000000000000003
aF0.93000000000000005
aF-0.17999999999999999
aI83
aI4834
aI11
aF-159.16
aF-187.68000000000001
aF199.63999999999999
aa(lp121
g3
ag4
aI0
aF14.543957948684692
aF0.28000000000000003
aF0.93000000000000005
aF-0.17999999999999999
aI-40
aI3011
aI292
aF-177.56
aF-186.75999999999999
aF183.08000000000001
aa(lp122
g3
ag4
aI0
aF14.687579870223999
aF0.31
aF0.93000000000000005
aF-0.14999999999999999
aI-113
aI-223
aI400
aF-185.84
aF-184
aF179.40000000000001
aa(lp123
g3
ag4
aI0
aF14.822068929672241
aF0.33000000000000002
aF0.93000000000000005
aF-0.14999999999999999
aI-135
aI-85
aI26
aF-185.84
aF-184
aF180.31999999999999
aa(lp124
g3
ag4
aI0
aF14.926409006118774
aF0.34000000000000002
aF0.93000000000000005
aF-0.14999999999999999
aI-128
aI-1399
aI-274
aF-184.91999999999999
aF-186.75999999999999
aF182.16
aa(lp125
g3
ag4
aI0
aF15.047671794891357
aF0.32000000000000001
aF0.93000000000000005
aF-0.14999999999999999
aI-51
aI-4550
aI-534
aF-172.03999999999999
aF-187.68000000000001
aF190.44
aa(lp126
g3
ag4
aI0
aF15.171443939208984
aF0.28000000000000003
aF0.93000000000000005
aF-0.16
aI69
aI-2748
aI244
aF-145.36000000000001
aF-189.52000000000001
aF210.68000000000001
aa(lp127
g3
ag4
aI0
aF15.322081804275513
aF0.29999999999999999
aF0.93000000000000005
aF-0.17000000000000001
aI250
aI3004
aI395
aF-142.59999999999999
aF-188.59999999999999
aF211.59999999999999
aa(lp128
g3
ag4
aI0
aF15.421924829483032
aF0.31
aF0.93000000000000005
aF-0.17000000000000001
aI-21
aI1329
aI435
aF-156.40000000000001
aF-184.91999999999999
aF205.16
aa(lp129
g3
ag4
aI0
aF15.533875942230225
aF0.28999999999999998
aF0.92000000000000004
aF-0.16
aI-207
aI1912
aI300
aF-165.59999999999999
aF-181.24000000000001
aF198.72
aa(lp130
g3
ag4
aI0
aF15.657634973526001
aF0.33000000000000002
aF0.92000000000000004
aF-0.14999999999999999
aI-161
aI4359
aI-55
aF-183.08000000000001
aF-186.75999999999999
aF181.24000000000001
aa(lp131
g3
ag4
aI0
aF15.82154393196106
aF0.33000000000000002
aF0.93000000000000005
aF-0.14999999999999999
aI-391
aI-3610
aI-447
aF-183.08000000000001
aF-187.68000000000001
aF184
aa(lp132
g3
ag4
aI0
aF15.943009853363037
aF0.32000000000000001
aF0.93999999999999995
aF-0.14999999999999999
aI-227
aI-1878
aI-213
aF-164.68000000000001
aF-191.36000000000001
aF195.03999999999999
aa(lp133
g3
ag4
aI0
aF16.051541805267334
aF0.33000000000000002
aF0.93000000000000005
aF-0.16
aI-244
aI-3337
aI-28
aF-158.24000000000001
aF-192.28
aF195.03999999999999
aa(lp134
g3
ag4
aI0
aF16.150358915328979
aF0.26000000000000001
aF0.93000000000000005
aF-0.14999999999999999
aI199
aI-1029
aI184
aF-140.75999999999999
aF-195.03999999999999
aF208.84
aa(lp135
g3
ag4
aI0
aF16.290083885192871
aF0.28999999999999998
aF0.93000000000000005
aF-0.16
aI485
aI6275
aI389
aF-142.59999999999999
aF-189.52000000000001
aF207
aa(lp136
g3
ag4
aI0
aF16.421458005905151
aF0.32000000000000001
aF0.93000000000000005
aF-0.16
aI266
aI1939
aI407
aF-173.88
aF-185.84
aF189.52000000000001
aa(lp137
g3
ag4
aI0
aF16.52142596244812
aF0.32000000000000001
aF0.93000000000000005
aF-0.14000000000000001
aI2
aI2082
aI193
aF-184
aF-184
aF184
aa(lp138
g3
ag4
aI0
aF16.636570930480957
aF0.33000000000000002
aF0.93000000000000005
aF-0.14000000000000001
aI-153
aI-217
aI-46
aF-195.96000000000001
aF-183.08000000000001
aF174.80000000000001
aa(lp139
g3
ag4
aI0
aF16.771450996398926
aF0.32000000000000001
aF0.93000000000000005
aF-0.14000000000000001
aI-369
aI-3836
aI-175
aF-179.40000000000001
aF-186.75999999999999
aF186.75999999999999
aa(lp140
g3
ag4
aI0
aF16.921514987945557
aF0.32000000000000001
aF0.93000000000000005
aF-0.14999999999999999
aI-135
aI638
aI-40
aF-170.19999999999999
aF-188.59999999999999
aF189.52000000000001
aa(lp141
g3
ag4
aI0
aF17.032559871673584
aF0.32000000000000001
aF0.93000000000000005
aF-0.14999999999999999
aI-102
aI-228
aI0
aF-169.28
aF-189.52000000000001
aF188.59999999999999
aa(lp142
g3
ag4
aI0
aF17.153819799423218
aF0.31
aF0.93000000000000005
aF-0.14999999999999999
aI121
aI3656
aI149
aF-167.44
aF-192.28
aF190.44
aa(lp143
g3
ag4
aI0
aF17.321712970733643
aF0.34000000000000002
aF0.93000000000000005
aF-0.14000000000000001
aI266
aI4439
aI385
aF-190.44
aF-188.59999999999999
aF173.88
aa(lp144
g3
ag4
aI0
aF17.421252012252808
aF0.37
aF0.93000000000000005
aF-0.13
aI-238
aI-5925
aI-139
aF-206.08000000000001
aF-184.91999999999999
aF164.68000000000001
aa(lp145
g3
ag4
aI0
aF17.522074937820435
aF0.31
aF0.93999999999999995
aF-0.11
aI-443
aI-2903
aI22
aF-175.72
aF-192.28
aF184.91999999999999
aa(lp146
g3
ag4
aI0
aF17.623805999755859
aF0.28999999999999998
aF0.93000000000000005
aF-0.12
aI11
aI6424
aI161
aF-179.40000000000001
aF-189.52000000000001
aF184
aa(lp147
g3
ag4
aI0
aF17.738999843597412
aF0.35999999999999999
aF0.93000000000000005
aF-0.13
aI133
aI5354
aI272
aF-218.96000000000001
aF-184.91999999999999
aF149.96000000000001
aa(lp148
g3
ag4
aI0
aF17.876486778259277
aF0.38
aF0.92000000000000004
aF-0.12
aI-236
aI-4861
aI-37
aF-218.03999999999999
aF-184.91999999999999
aF151.80000000000001
aa(lp149
g3
ag4
aI0
aF18.022019863128662
aF0.34000000000000002
aF0.91000000000000003
aF-0.12
aI-592
aI-1537
aI-2
aF-193.19999999999999
aF-190.44
aF171.12
aa(lp150
g3
ag4
aI0
aF18.13516092300415
aF0.33000000000000002
aF0.92000000000000004
aF-0.089999999999999997
aI-843
aI3970
aI475
aF-203.31999999999999
aF-192.28
aF160.08000000000001
aa(lp151
g3
ag4
aI0
aF18.235188007354736
aF0.34999999999999998
aF0.92000000000000004
aF-0.080000000000000002
aI-1199
aI4179
aI415
aF-224.47999999999999
aF-193.19999999999999
aF131.56
aa(lp152
g3
ag4
aI0
aF18.388892889022827
aF0.37
aF0.90000000000000002
aF-0.080000000000000002
aI-1862
aI-6114
aI-324
aF-224.47999999999999
aF-195.96000000000001
aF124.2
aa(lp153
g3
ag4
aI0
aF18.522029876708984
aF0.35999999999999999
aF0.91000000000000003
aF-0.050000000000000003
aI-1405
aI-6729
aI-1365
aF-198.72
aF-209.75999999999999
aF145.36000000000001
aa(lp154
g3
ag4
aI0
aF18.621432781219482
aF0.33000000000000002
aF0.93999999999999995
aF-0.02
aI-1515
aI-3340
aI-643
aF-164.68000000000001
aF-226.31999999999999
aF159.16
aa(lp155
g3
ag4
aI0
aF18.740261793136597
aF0.32000000000000001
aF0.93999999999999995
aF-0.01
aI-2091
aI-4017
aI-831
aF-149.96000000000001
aF-234.59999999999999
aF160.08000000000001
aa(lp156
g3
ag4
aI0
aF18.875197887420654
aF0.29999999999999999
aF0.94999999999999996
aF-0
aI-1543
aI-2811
aI-1110
aF-125.12
aF-248.40000000000001
aF161.91999999999999
aa(lp157
g3
ag4
aI0
aF19.021466970443726
aF0.25
aF0.97999999999999998
aF0.01
aI-834
aI-948
aI-1749
aF-106.72
aF-260.36000000000001
aF160.08000000000001
aa(lp158
g3
ag4
aI0
aF19.136456966400146
aF0.22
aF1.04
aF0.02
aI-412
aI-2347
aI-1362
aF-89.239999999999995
aF-269.56
aF158.24000000000001
aa(lp159
g3
ag4
aI0
aF19.243850946426392
aF0.19
aF1.05
aF0.050000000000000003
aI-358
aI-1873
aI-870
aF-68.079999999999998
aF-273.24000000000001
aF163.75999999999999
aa(lp160
g3
ag4
aI0
aF19.360229969024658
aF0.19
aF0.90000000000000002
aF0.040000000000000001
aI204
aI-338
aI-988
aF-54.280000000000001
aF-279.68000000000001
aF162.84
aa(lp161
g3
ag4
aI0
aF19.521237850189209
aF0.12
aF0.93999999999999995
aF0.029999999999999999
aI762
aI-5488
aI-1400
aF-23.920000000000002
aF-276.92000000000002
aF174.80000000000001
aa(lp162
g3
ag4
aI0
aF19.62195086479187
aF0.14000000000000001
aF1.01
aF0.01
aI742
aI-2641
aI-2011
aF12.880000000000001
aF-273.24000000000001
aF187.68000000000001
aa(lp163
g3
ag4
aI0
aF19.78892993927002
aF0
aF1.01
aF0.01
aI-120
aI-940
aI-802
aF40.479999999999997
aF-276
aF189.52000000000001
aa(lp164
g3
ag4
aI0
aF19.921974897384644
aF0.16
aF0.97999999999999998
aF0.050000000000000003
aI-97
aI-180
aI-142
aF38.640000000000001
aF-278.75999999999999
aF184.91999999999999
aa(lp165
g3
ag4
aI0
aF20.021997928619385
aF0.01
aF0.95999999999999996
aF-0.12
aI272
aI-6091
aI-3075
aF73.599999999999994
aF-281.51999999999998
aF186.75999999999999
aa(lp166
g3
ag4
aI0
aF20.121789932250977
aF0.029999999999999999
aF1.05
aF-0.13
aI1913
aI-2161
aI-1365
aF122.36
aF-273.24000000000001
aF184.91999999999999
aa(lp167
g3
ag4
aI0
aF20.222740888595581
aF-0.029999999999999999
aF1.1699999999999999
aF-0.14000000000000001
aI3592
aI2451
aI599
aF139.84
aF-254.84
aF201.47999999999999
aa(lp168
g3
ag4
aI0
aF20.340186834335327
aF0.01
aF1.1499999999999999
aF-0.11
aI2122
aI221
aI2344
aF106.72
aF-234.59999999999999
aF225.40000000000001
aa(lp169
g3
ag4
aI0
aF20.465230941772461
aF0.070000000000000007
aF1.0800000000000001
aF-0.059999999999999998
aI-673
aI145
aI4149
aF80.040000000000006
aF-236.44
aF242.88
aa(lp170
g3
ag4
aI0
aF20.621409893035889
aF0.059999999999999998
aF1.0700000000000001
aF-0
aI-1924
aI-4825
aI2683
aF62.560000000000002
aF-248.40000000000001
aF247.47999999999999
aa(lp171
g3
ag4
aI0
aF20.721937894821167
aF0.080000000000000002
aF1.0600000000000001
aF0.01
aI-4670
aI-4716
aI-669
aF106.72
aF-239.19999999999999
aF244.72
aa(lp172
g3
ag4
aI0
aF20.832753896713257
aF0.19
aF0.98999999999999999
aF0.12
aI1335
aI-4107
aI794
aF193.19999999999999
aF-241.96000000000001
aF192.28
aa(lp173
g3
ag4
aI0
aF20.965128898620605
aF0.23000000000000001
aF0.91000000000000003
aF0.20000000000000001
aI3193
aI-14849
aI4208
aF207.91999999999999
aF-266.80000000000001
aF165.59999999999999
aa(lp174
g3
ag4
aI0
aF21.122054815292358
aF0.22
aF0.76000000000000001
aF0.16
aI678
aI-17114
aI8909
aF203.31999999999999
aF-299
aF127.88
aa(lp175
g3
ag4
aI0
aF21.22223687171936
aF0.23999999999999999
aF0.85999999999999999
aF0.070000000000000007
aI-6561
aI-12761
aI10877
aF168.36000000000001
aF-319.24000000000001
aF102.12
aa(lp176
g3
ag4
aI0
aF21.350125789642334
aF0.35999999999999999
aF0.93999999999999995
aF0.11
aI-5973
aI-21112
aI11463
aF119.59999999999999
aF-350.51999999999998
aF44.159999999999997
aa(lp177
g3
ag4
aI0
aF21.462667942047119
aF0.40999999999999998
aF0.87
aF0.11
aI-5009
aI-14157
aI15391
aF41.399999999999999
aF-370.75999999999999
aF-19.32
aa(lp178
g3
ag4
aI0
aF21.621944904327393
aF0.59999999999999998
aF0.58999999999999997
aF0.029999999999999999
aI-9803
aI-7173
aI17946
aF-105.8
aF-346.83999999999997
aF-69.920000000000002
aa(lp179
g3
ag4
aI0
aF21.721995830535889
aF0.78000000000000003
aF0.52000000000000002
aF0.029999999999999999
aI-12788
aI-6313
aI16244
aF-276.92000000000002
aF-255.75999999999999
aF-120.52
aa(lp180
g3
ag4
aI0
aF21.845270872116089
aF1.1200000000000001
aF0.68000000000000005
aF0.11
aI-15156
aI-7993
aI4030
aF-351.44
aF-157.31999999999999
aF-180.31999999999999
aa(lp181
g3
ag4
aI0
aF21.967641830444336
aF0.48999999999999999
aF0.51000000000000001
aF0.14999999999999999
aI-14274
aI10258
aI-1655
aF-389.16000000000003
aF-91.079999999999998
aF-193.19999999999999
aa(lp182
g3
ag4
aI0
aF22.121493816375732
aF0.78000000000000003
aF0.57999999999999996
aF0.14999999999999999
aI-7625
aI2395
aI-4516
aF411.24000000000001
aF0.92000000000000004
aF2037.8
aa(lp183
g3
ag4
aI0
aF22.239000797271729
aF0.93000000000000005
aF0.42999999999999999
aF0.070000000000000007
aI5048
aI1070
aI-5991
aF-315.56
aF-103.04000000000001
aF-299.92000000000002
aa(lp184
g3
ag4
aI0
aF22.366491794586182
aF1.1499999999999999
aF0.46999999999999997
aF0.070000000000000007
aI2040
aI-4186
aI-5775
aF-282.44
aF-171.12
aF-267.72000000000003
aa(lp185
g3
ag4
aI0
aF22.52161693572998
aF0.82999999999999996
aF1.02
aF-0.11
aI3732
aI-4162
aI3699
aF-310.95999999999998
aF-178.47999999999999
aF-208.84
aa(lp186
g3
ag4
aI0
aF22.621884822845459
aF0.72999999999999998
aF0.72999999999999998
aF-0.070000000000000007
aI9922
aI567
aI1166
aF-322
aF-184
aF-161
aa(lp187
g3
ag4
aI0
aF22.722909927368164
aF0.71999999999999997
aF0.56999999999999995
aF-0.16
aI8333
aI3672
aI-383
aF-316.48000000000002
aF-191.36000000000001
aF-138.91999999999999
aa(lp188
g3
ag4
aI0
aF22.846711874008179
aF0.82999999999999996
aF0.39000000000000001
aF-0.23999999999999999
aI4622
aI2841
aI1327
aF-309.12
aF-207.91999999999999
aF-109.48
aa(lp189
g3
ag4
aI0
aF22.985231876373291
aF0.93000000000000005
aF0.41999999999999998
aF-0.33000000000000002
aI-3117
aI-1907
aI2521
aF-323.83999999999997
aF-196.88
aF-107.64
aa(lp190
g3
ag4
aI0
aF23.121913909912109
aF0.68999999999999995
aF0.54000000000000004
aF-0.23000000000000001
aI2014
aI4948
aI175
aF-338.56
aF-177.56
aF-99.359999999999999
aa(lp191
g3
ag4
aI0
aF23.221960783004761
aF0.58999999999999997
aF0.60999999999999999
aF-0.12
aI5456
aI12825
aI-10321
aF-319.24000000000001
aF-196.88
aF-125.12
aa(lp192
g3
ag4
aI0
aF23.379022836685181
aF0.68000000000000005
aF0.84999999999999998
aF-0
aI11071
aI13155
aI-18607
aF-198.72
aF-287.95999999999998
aF-156.40000000000001
aa(lp193
g3
ag4
aI0
aF23.521936893463135
aF0.55000000000000004
aF1.04
aF0.089999999999999997
aI12826
aI15319
aI-15265
aF-12.880000000000001
aF-364.31999999999999
aF-91.079999999999998
aa(lp194
g3
ag4
aI0
aF23.623933792114258
aF0.68999999999999995
aF1.22
aF0.14000000000000001
aI13762
aI16952
aI-19510
aF127.88
aF-352.36000000000001
aF26.68
aa(lp195
g3
ag4
aI0
aF23.724373817443848
aF0.42999999999999999
aF0.92000000000000004
aF-0.080000000000000002
aI3641
aI-1114
aI-5569
aF239.19999999999999
aF-276.92000000000002
aF130.63999999999999
aa(lp196
g3
ag4
aI0
aF23.847932815551758
aF0.31
aF0.80000000000000004
aF-0.17999999999999999
aI2642
aI11388
aI-3165
aF244.72
aF-249.31999999999999
aF168.36000000000001
aa(lp197
g3
ag4
aI0
aF23.980021953582764
aF0.17999999999999999
aF0.84999999999999998
aF-0.37
aI2192
aI4608
aI-2226
aF214.36000000000001
aF-229.08000000000001
aF207
aa(lp198
g3
ag4
aI0
aF24.121978998184204
aF0.34000000000000002
aF0.89000000000000001
aF-0.29999999999999999
aI4567
aI15074
aI-7599
aF172.96000000000001
aF-194.12
aF253
aa(lp199
g3
ag4
aI0
aF24.255204916000366
aF0.52000000000000002
aF0.76000000000000001
aF-0.44
aI-1154
aI-8081
aI-9032
aF195.96000000000001
aF-161
aF272.31999999999999
aa(lp200
g3
ag4
aI0
aF24.421043872833252
aF0.34000000000000002
aF0.76000000000000001
aF-0.44
aI-589
aI-6890
aI2471
aF302.68000000000001
aF-161.91999999999999
aF226.31999999999999
aa(lp201
g3
ag4
aI0
aF24.522055864334106
aF0.34999999999999998
aF0.81999999999999995
aF-0.39000000000000001
aI383
aI3088
aI11363
aF249.31999999999999
aF-191.36000000000001
aF228.16
aa(lp202
g3
ag4
aI0
aF24.620995998382568
aF0.33000000000000002
aF0.93000000000000005
aF-0.28999999999999998
aI-1760
aI88
aI17988
aF141.68000000000001
aF-237.36000000000001
aF223.56
aa(lp203
g3
ag4
aI0
aF24.724407911300659
aF0.46000000000000002
aF0.93999999999999995
aF-0.27000000000000002
aI-4202
aI-2853
aI16184
aF70.840000000000003
aF-256.68000000000001
aF209.75999999999999
aa(lp204
g3
ag4
aI0
aF24.903997898101807
aF0.67000000000000004
aF0.81999999999999995
aF-0.32000000000000001
aI-2854
aI-13670
aI18828
aF-20.239999999999998
aF-269.56
aF186.75999999999999
aa(lp205
g3
ag4
aI0
aF25.021979808807373
aF0.80000000000000004
aF0.56999999999999995
aF-0.31
aI-7669
aI-8875
aI22242
aF-102.12
aF-245.63999999999999
aF183.08000000000001
aa.