(lp1
(lp2
S'Sandra'
p3
aS'tricep'
p4
aI0
aF0.00023293495178222656
aF0.48999999999999999
aF-0.94999999999999996
aF-0.080000000000000002
aI43
aI64
aI-76
aF-310.95999999999998
aF460
aF-85.560000000000002
aa(lp5
g3
ag4
aI0
aF0.23462009429931641
aF0.45000000000000001
aF-0.95999999999999996
aF-0.070000000000000007
aI163
aI1302
aI1473
aF-311.88
aF457.24000000000001
aF-87.400000000000006
aa(lp6
g3
ag4
aI0
aF0.35485601425170898
aF0.39000000000000001
aF-0.97999999999999998
aF-0.040000000000000001
aI-629
aI1518
aI4300
aF-296.24000000000001
aF475.63999999999999
aF-96.599999999999994
aa(lp7
g3
ag4
aI0
aF0.51201415061950684
aF0.31
aF-1.0600000000000001
aF-0.029999999999999999
aI-720
aI2294
aI9163
aF-261.27999999999997
aF517.03999999999996
aF-99.359999999999999
aa(lp8
g3
ag4
aI0
aF0.63172316551208496
aF0.16
aF-1.1200000000000001
aF-0.040000000000000001
aI-646
aI3399
aI14615
aF-177.56
aF578.67999999999995
aF-103.95999999999999
aa(lp9
g3
ag4
aI0
aF0.74587702751159668
aF-0
aF-1.1399999999999999
aF-0.080000000000000002
aI-582
aI2020
aI15468
aF-48.759999999999998
aF635.72000000000003
aF-100.28
aa(lp10
g3
ag4
aI0
aF0.86079716682434082
aF-0.16
aF-1.0600000000000001
aF-0.10000000000000001
aI-659
aI4074
aI13237
aF79.120000000000005
aF652.27999999999997
aF-88.319999999999993
aa(lp11
g3
ag4
aI0
aF0.98091316223144531
aF-0.29999999999999999
aF-0.93999999999999995
aF-0.14999999999999999
aI-938
aI4679
aI12348
aF202.40000000000001
aF630.20000000000005
aF-70.840000000000003
aa(lp12
g3
ag4
aI0
aF1.1320321559906006
aF-0.47999999999999998
aF-0.80000000000000004
aF-0.17999999999999999
aI-1083
aI-904
aI7553
aF293.48000000000002
aF597.08000000000004
aF-54.280000000000001
aa(lp13
g3
ag4
aI0
aF1.2409191131591797
aF-0.52000000000000002
aF-0.68999999999999995
aF-0.20000000000000001
aI109
aI-882
aI1893
aF311.88
aF580.51999999999998
aF-50.600000000000001
aa(lp14
g3
ag4
aI0
aF1.3559291362762451
aF-0.56999999999999995
aF-0.63
aF-0.17999999999999999
aI726
aI-564
aI-3825
aF320.16000000000003
aF575.91999999999996
aF-58.880000000000003
aa(lp15
g3
ag4
aI0
aF1.5022130012512207
aF-0.53000000000000003
aF-0.68000000000000005
aF-0.23999999999999999
aI1298
aI-429
aI-9592
aF280.60000000000002
aF598
aF-68.079999999999998
aa(lp16
g3
ag4
aI0
aF1.6311459541320801
aF-0.47999999999999998
aF-0.81000000000000005
aF-0.20999999999999999
aI612
aI-343
aI-14408
aF191.36000000000001
aF637.55999999999995
aF-76.359999999999999
aa(lp17
g3
ag4
aI0
aF1.7407910823822021
aF-0.33000000000000002
aF-0.93000000000000005
aF-0.16
aI-667
aI1438
aI-16581
aF45.079999999999998
aF652.27999999999997
aF-87.400000000000006
aa(lp18
g3
ag4
aI0
aF1.8745510578155518
aF-0.059999999999999998
aF-1.0800000000000001
aF-0.19
aI1809
aI-334
aI-18713
aF-112.23999999999999
aF616.39999999999998
aF-100.28
aa(lp19
g3
ag4
aI0
aF2.0321099758148193
aF0.11
aF-1.1100000000000001
aF-0.17999999999999999
aI759
aI-3787
aI-16122
aF-242.88
aF532.67999999999995
aF-107.64
aa(lp20
g3
ag4
aI0
aF2.1371631622314453
aF0.31
aF-1.0800000000000001
aF-0.11
aI1276
aI-3191
aI-12210
aF-328.44
aF432.39999999999998
aF-97.519999999999996
aa(lp21
g3
ag4
aI0
aF2.2609109878540039
aF0.47999999999999998
aF-0.94999999999999996
aF-0.11
aI771
aI-1414
aI-7736
aF-370.75999999999999
aF346.83999999999997
aF-82.799999999999997
aa(lp22
g3
ag4
aI0
aF2.3821289539337158
aF0.57999999999999996
aF-0.85999999999999999
aF-0.12
aI1420
aI-1877
aI-3328
aF-385.48000000000002
aF298.07999999999998
aF-73.599999999999994
aa(lp23
g3
ag4
aI0
aF2.5320401191711426
aF0.65000000000000002
aF-0.80000000000000004
aF-0.14000000000000001
aI718
aI218
aI844
aF-385.48000000000002
aF284.27999999999997
aF-70.840000000000003
aa(lp24
g3
ag4
aI0
aF2.6321151256561279
aF0.68000000000000005
aF-0.80000000000000004
aF-0.14000000000000001
aI-387
aI1187
aI4176
aF-385.48000000000002
aF304.51999999999998
aF-74.519999999999996
aa(lp25
g3
ag4
aI0
aF2.7497191429138184
aF0.66000000000000003
aF-0.81999999999999995
aF-0.16
aI-1265
aI1240
aI7627
aF-367.07999999999998
aF357.88
aF-84.640000000000001
aa(lp26
g3
ag4
aI0
aF2.8746070861816406
aF0.59999999999999998
aF-0.91000000000000003
aF-0.14000000000000001
aI-1340
aI895
aI10488
aF-327.51999999999998
aF433.31999999999999
aF-80.040000000000006
aa(lp27
g3
ag4
aI0
aF3.0319759845733643
aF0.46999999999999997
aF-0.96999999999999997
aF-0.14999999999999999
aI-1146
aI644
aI12583
aF-303.60000000000002
aF474.72000000000003
aF-84.640000000000001
aa(lp28
g3
ag4
aI0
aF3.1321320533752441
aF0.31
aF-1.04
aF-0.17000000000000001
aI-1510
aI2738
aI14623
aF-221.72
aF552.91999999999996
aF-80.040000000000006
aa(lp29
g3
ag4
aI0
aF3.26204514503479
aF0.14999999999999999
aF-1.0700000000000001
aF-0.19
aI-688
aI2715
aI15207
aF-111.31999999999999
aF618.24000000000001
aF-73.599999999999994
aa(lp30
g3
ag4
aI0
aF3.4319660663604736
aF-0.080000000000000002
aF-1.02
aF-0.25
aI-1715
aI842
aI13843
aF21.16
aF651.36000000000001
aF-61.640000000000001
aa(lp31
g3
ag4
aI0
aF3.532020092010498
aF-0.25
aF-0.95999999999999996
aF-0.31
aI-1953
aI755
aI10787
aF147.19999999999999
aF644.91999999999996
aF-39.560000000000002
aa(lp32
g3
ag4
aI0
aF3.6320381164550781
aF-0.40000000000000002
aF-0.80000000000000004
aF-0.27000000000000002
aI-2023
aI898
aI6297
aF231.84
aF616.39999999999998
aF-16.559999999999999
aa(lp33
g3
ag4
aI0
aF3.7583420276641846
aF-0.45000000000000001
aF-0.68999999999999995
aF-0.27000000000000002
aI-490
aI-502
aI1184
aF273.24000000000001
aF598.91999999999996
aF-1.8400000000000001
aa(lp34
g3
ag4
aI0
aF3.8735790252685547
aF-0.46999999999999997
aF-0.65000000000000002
aF-0.27000000000000002
aI855
aI-869
aI-2527
aF267.72000000000003
aF601.67999999999995
aF-9.1999999999999993
aa(lp35
g3
ag4
aI0
aF4.0306010246276855
aF-0.48999999999999999
aF-0.68000000000000005
aF-0.26000000000000001
aI1162
aI79
aI-7616
aF223.56
aF621
aF-25.760000000000002
aa(lp36
g3
ag4
aI0
aF4.1320600509643555
aF-0.40000000000000002
aF-0.72999999999999998
aF-0.29999999999999999
aI465
aI-1271
aI-11679
aF120.52
aF648.60000000000002
aF-43.240000000000002
aa(lp37
g3
ag4
aI0
aF4.2410731315612793
aF-0.20000000000000001
aF-0.91000000000000003
aF-0.20000000000000001
aI2127
aI1309
aI-14681
aF-1.8400000000000001
aF645.84000000000003
aF-60.719999999999999
aa(lp38
g3
ag4
aI0
aF4.3570840358734131
aF-0.050000000000000003
aF-1.02
aF-0.27000000000000002
aI1062
aI-3113
aI-16771
aF-146.28
aF603.51999999999998
aF-81.879999999999995
aa(lp39
g3
ag4
aI0
aF4.496737003326416
aF0.14999999999999999
aF-1.0600000000000001
aF-0.20000000000000001
aI1602
aI-957
aI-15321
aF-259.44
aF518.88
aF-93.840000000000003
aa(lp40
g3
ag4
aI0
aF4.6320919990539551
aF0.34000000000000002
aF-1.05
aF-0.16
aI1178
aI-2342
aI-13225
aF-332.12
aF421.36000000000001
aF-92.920000000000002
aa(lp41
g3
ag4
aI0
aF4.7370409965515137
aF0.51000000000000001
aF-0.93999999999999995
aF-0.14999999999999999
aI1253
aI-1309
aI-8891
aF-356.04000000000002
aF373.51999999999998
aF-89.239999999999995
aa(lp42
g3
ag4
aI0
aF4.8835630416870117
aF0.63
aF-0.84999999999999998
aF-0.13
aI1907
aI-2174
aI-4166
aF-381.80000000000001
aF300.83999999999997
aF-80.040000000000006
aa(lp43
g3
ag4
aI0
aF5.030951976776123
aF0.68000000000000005
aF-0.78000000000000003
aF-0.13
aI1181
aI-1392
aI-1120
aF-391
aF268.63999999999999
aF-69
aa(lp44
g3
ag4
aI0
aF5.1318521499633789
aF0.72999999999999998
aF-0.75
aF-0.14000000000000001
aI24
aI829
aI1733
aF-388.24000000000001
aF264.04000000000002
aF-64.400000000000006
aa(lp45
g3
ag4
aI0
aF5.2446949481964111
aF0.71999999999999997
aF-0.77000000000000002
aF-0.16
aI-878
aI217
aI4928
aF-383.63999999999999
aF286.12
aF-73.599999999999994
aa(lp46
g3
ag4
aI0
aF5.3696911334991455
aF0.68999999999999995
aF-0.82999999999999996
aF-0.14000000000000001
aI-1282
aI1382
aI9110
aF-15301.440000000001
aF296.24000000000001
aF-20961.279999999999
aa(lp47
g3
ag4
aI0
aF5.5319311618804932
aF0.56000000000000005
aF-0.90000000000000002
aF-0.14000000000000001
aI-2288
aI1798
aI12917
aF-333.95999999999998
aF421.36000000000001
aF-74.519999999999996
aa(lp48
g3
ag4
aI0
aF5.642186164855957
aF0.46000000000000002
aF-1.01
aF-0.16
aI-1696
aI2276
aI15221
aF-258.51999999999998
aF517.03999999999996
aF-74.519999999999996
aa(lp49
g3
ag4
aI0
aF5.7608239650726318
aF0.27000000000000002
aF-1.05
aF-0.17999999999999999
aI-1736
aI2081
aI16271
aF-149.03999999999999
aF596.15999999999997
aF-63.479999999999997
aa(lp50
g3
ag4
aI0
aF5.8759000301361084
aF0.080000000000000002
aF-1.03
aF-0.22
aI-1128
aI2542
aI15473
aF-9.1999999999999993
aF647.67999999999995
aF-50.600000000000001
aa(lp51
g3
ag4
aI0
aF6.0319280624389648
aF-0.16
aF-0.96999999999999997
aF-0.28000000000000003
aI-1739
aI2198
aI13126
aF124.2
aF650.44000000000005
aF-30.359999999999999
aa(lp52
g3
ag4
aI0
aF6.1420910358428955
aF-0.28000000000000003
aF-0.84999999999999998
aF-0.34999999999999998
aI-2033
aI1576
aI8841
aF225.40000000000001
aF622.84000000000003
aF-1.8400000000000001
aa(lp53
g3
ag4
aI0
aF6.2422609329223633
aF-0.34000000000000002
aF-0.72999999999999998
aF-0.34999999999999998
aI-122
aI-502
aI-528
aF260.36000000000001
aF604.44000000000005
aF2.7599999999999998
aa(lp54
g3
ag4
aI0
aF6.3695781230926514
aF-0.38
aF-0.68999999999999995
aF-0.34999999999999998
aI520
aI-281
aI-5721
aF237.36000000000001
aF614.55999999999995
aF0.92000000000000004
aa(lp55
g3
ag4
aI0
aF6.5318920612335205
aF-0.28000000000000003
aF-0.76000000000000001
aF-0.34999999999999998
aI1594
aI-1920
aI-15503
aF193.19999999999999
aF631.12
aF-6.4400000000000004
aa(lp56
g3
ag4
aI0
aF6.6319429874420166
aF-0.14000000000000001
aF-0.93000000000000005
aF-0.34999999999999998
aI2285
aI-859
aI-18439
aF45.079999999999998
aF653.20000000000005
aF-31.280000000000001
aa(lp57
g3
ag4
aI0
aF6.7470250129699707
aF-0.029999999999999999
aF-1.03
aF-0.37
aI1441
aI-2358
aI-18685
aF-113.16
aF616.39999999999998
aF-55.200000000000003
aa(lp58
g3
ag4
aI0
aF6.8720929622650146
aF0.17999999999999999
aF-1.1000000000000001
aF-0.26000000000000001
aI2404
aI-836
aI-16207
aF-248.40000000000001
aF529
aF-75.439999999999998
aa(lp59
g3
ag4
aI0
aF7.031731128692627
aF0.40000000000000002
aF-1.0600000000000001
aF-0.16
aI2228
aI188
aI-12647
aF-331.19999999999999
aF416.75999999999999
aF-86.480000000000004
aa(lp60
g3
ag4
aI0
aF7.1319739818572998
aF0.51000000000000001
aF-0.93999999999999995
aF-0.14000000000000001
aI2366
aI-871
aI-6819
aF-372.60000000000002
aF327.51999999999998
aF-95.680000000000007
aa(lp61
g3
ag4
aI0
aF7.2471809387207031
aF0.62
aF-0.81999999999999995
aF-0.12
aI1345
aI-519
aI-2203
aF-388.24000000000001
aF277.83999999999997
aF-95.680000000000007
aa(lp62
g3
ag4
aI0
aF7.3647840023040771
aF0.69999999999999996
aF-0.77000000000000002
aF-0.13
aI562
aI441
aI1510
aF-391
aF269.56
aF-92.920000000000002
aa(lp63
g3
ag4
aI0
aF7.531919002532959
aF0.72999999999999998
aF-0.79000000000000004
aF-0.089999999999999997
aI-1145
aI538
aI3924
aF-383.63999999999999
aF289.80000000000001
aF-96.599999999999994
aa(lp64
g3
ag4
aI0
aF7.6319000720977783
aF0.66000000000000003
aF-0.83999999999999997
aF-0.11
aI-2265
aI584
aI8909
aF-368.92000000000002
aF342.24000000000001
aF-96.599999999999994
aa(lp65
g3
ag4
aI0
aF7.7582881450653076
aF0.54000000000000004
aF-0.92000000000000004
aF-0.089999999999999997
aI-2583
aI2591
aI17179
aF-316.48000000000002
aF439.75999999999999
aF-96.599999999999994
aa(lp66
g3
ag4
aI0
aF7.8819229602813721
aF0.41999999999999998
aF-1.02
aF-0.13
aI-1282
aI2888
aI21961
aF-200.56
aF563.96000000000004
aF-97.519999999999996
aa(lp67
g3
ag4
aI0
aF8.0319449901580811
aF0.17999999999999999
aF-1.0600000000000001
aF-0.20999999999999999
aI-667
aI-3443
aI22467
aF-16.559999999999999
aF642.15999999999997
aF-77.280000000000001
aa(lp68
g3
ag4
aI0
aF8.1344270706176758
aF-0.14999999999999999
aF-1.02
aF-0.20999999999999999
aI176
aI-1058
aI14645
aF159.16
aF642.15999999999997
aF-69
aa(lp69
g3
ag4
aI0
aF8.2568349838256836
aF-0.33000000000000002
aF-0.85999999999999999
aF-0.20999999999999999
aI-990
aI4103
aI7528
aF209.75999999999999
aF624.67999999999995
aF-65.319999999999993
aa(lp70
g3
ag4
aI0
aF8.3745560646057129
aF-0.40000000000000002
aF-0.71999999999999997
aF-0.25
aI-743
aI1853
aI1030
aF266.80000000000001
aF602.60000000000002
aF-38.640000000000001
aa(lp71
g3
ag4
aI0
aF8.5314099788665771
aF-0.46000000000000002
aF-0.68999999999999995
aF-0.23999999999999999
aI474
aI-1904
aI-4969
aF266.80000000000001
aF605.36000000000001
aF-32.200000000000003
aa(lp72
g3
ag4
aI0
aF8.6372909545898438
aF-0.46999999999999997
aF-0.75
aF-0.20999999999999999
aI615
aI-1073
aI-9856
aF219.88
aF622.84000000000003
aF-46.920000000000002
aa(lp73
g3
ag4
aI0
aF8.7571470737457275
aF-0.35999999999999999
aF-0.85999999999999999
aF-0.17999999999999999
aI-515
aI1781
aI-12834
aF115
aF647.67999999999995
aF-56.119999999999997
aa(lp74
g3
ag4
aI0
aF8.8885331153869629
aF-0.23000000000000001
aF-1.03
aF-0.23999999999999999
aI1733
aI-3004
aI-17606
aF-19.32
aF642.15999999999997
aF-66.239999999999995
aa(lp75
g3
ag4
aI0
aF9.0318779945373535
aF-0.089999999999999997
aF-1.04
aF-0.19
aI1158
aI-1130
aI-15137
aF-161
aF591.55999999999995
aF-85.560000000000002
aa(lp76
g3
ag4
aI0
aF9.1318540573120117
aF0.14999999999999999
aF-1.05
aF-0.14000000000000001
aI2604
aI-1209
aI-13298
aF-263.12
aF509.68000000000001
aF-98.439999999999998
aa(lp77
g3
ag4
aI0
aF9.2734839916229248
aF0.35999999999999999
aF-1.01
aF-0.11
aI1928
aI-2021
aI-10659
aF-329.36000000000001
aF421.36000000000001
aF-106.72
aa(lp78
g3
ag4
aI0
aF9.4315941333770752
aF0.51000000000000001
aF-0.93000000000000005
aF-0.080000000000000002
aI2544
aI-1776
aI-6863
aF-365.24000000000001
aF345
aF-104.88
aa(lp79
g3
ag4
aI0
aF9.5322580337524414
aF0.62
aF-0.83999999999999997
aF-0.080000000000000002
aI1226
aI-1154
aI-3825
aF-470.12
aF-20961.279999999999
aF-15301.440000000001
aa(lp80
g3
ag4
aI0
aF9.6485271453857422
aF0.68000000000000005
aF-0.81000000000000005
aF-0.070000000000000007
aI344
aI-244
aI103
aF-383.63999999999999
aF276
aF-88.319999999999993
aa(lp81
g3
ag4
aI0
aF9.764678955078125
aF0.68000000000000005
aF-0.81000000000000005
aF-0.070000000000000007
aI-1543
aI255
aI4384
aF-384.56
aF290.72000000000003
aF-89.239999999999995
aa(lp82
g3
ag4
aI0
aF9.9319090843200684
aF0.65000000000000002
aF-0.84999999999999998
aF-0.089999999999999997
aI-1579
aI1138
aI10529
aF-361.56
aF350.51999999999998
aF-87.400000000000006
aa(lp83
g3
ag4
aI0
aF10.031559944152832
aF0.55000000000000004
aF-0.93000000000000005
aF-0.080000000000000002
aI-1737
aI1238
aI14967
aF-310.04000000000002
aF452.63999999999999
aF-84.640000000000001
aa(lp84
g3
ag4
aI0
aF10.136944055557251
aF0.38
aF-1.02
aF-0.10000000000000001
aI-635
aI1085
aI17059
aF-218.96000000000001
aF551.08000000000004
aF-83.719999999999999
aa(lp85
g3
ag4
aI0
aF10.255918979644775
aF0.20999999999999999
aF-1.0600000000000001
aF-0.13
aI-624
aI1911
aI17798
aF-82.799999999999997
aF623.75999999999999
aF-74.519999999999996
aa(lp86
g3
ag4
aI0
aF10.392163038253784
aF-0.029999999999999999
aF-1.05
aF-0.16
aI-948
aI54
aI14028
aF55.200000000000003
aF651.36000000000001
aF-66.239999999999995
aa(lp87
g3
ag4
aI0
aF10.531903028488159
aF-0.22
aF-0.95999999999999996
aF-0.17999999999999999
aI-758
aI1927
aI10611
aF111.31999999999999
aF648.60000000000002
aF-57.039999999999999
aa(lp88
g3
ag4
aI0
aF10.657222986221313
aF-0.33000000000000002
aF-0.83999999999999997
aF-0.26000000000000001
aI-763
aI2243
aI4475
aF202.40000000000001
aF627.44000000000005
aF-42.32
aa(lp89
g3
ag4
aI0
aF10.7745680809021
aF-0.39000000000000001
aF-0.76000000000000001
aF-0.23000000000000001
aI-170
aI-730
aI-1165
aF231.84
aF618.24000000000001
aF-32.200000000000003
aa(lp90
g3
ag4
aI0
aF10.931722164154053
aF-0.40999999999999998
aF-0.76000000000000001
aF-0.20999999999999999
aI96
aI-586
aI-6666
aF211.59999999999999
aF624.67999999999995
aF-34.960000000000001
aa(lp91
g3
ag4
aI0
aF11.031633138656616
aF-0.34000000000000002
aF-0.80000000000000004
aF-0.26000000000000001
aI-489
aI594
aI-11456
aF128.80000000000001
aF645.84000000000003
aF-40.479999999999997
aa(lp92
g3
ag4
aI0
aF11.139654159545898
aF-0.17000000000000001
aF-0.96999999999999997
aF-0.23000000000000001
aI2107
aI-74
aI-16613
aF4.5999999999999996
aF646.75999999999999
aF-48.759999999999998
aa(lp93
g3
ag4
aI0
aF11.259604930877686
aF-0.089999999999999997
aF-1.0700000000000001
aF-0.28999999999999998
aI2107
aI-2275
aI-15868
aF-138
aF601.67999999999995
aF-75.439999999999998
aa(lp94
g3
ag4
aI0
aF11.408420085906982
aF0.13
aF-1.04
aF-0.20999999999999999
aI2489
aI1340
aI-13718
aF-247.47999999999999
aF531.75999999999999
aF-94.760000000000005
aa(lp95
g3
ag4
aI0
aF11.530719041824341
aF0.28000000000000003
aF-1.02
aF-0.14999999999999999
aI2263
aI-2366
aI-10171
aF-315.56
aF446.19999999999999
aF-108.56
aa(lp96
g3
ag4
aI0
aF11.653533935546875
aF0.41999999999999998
aF-0.96999999999999997
aF-0.11
aI1996
aI-3076
aI-6087
aF-351.44
aF382.72000000000003
aF-105.8
aa(lp97
g3
ag4
aI0
aF11.773548126220703
aF0.5
aF-0.92000000000000004
aF-0.12
aI889
aI-539
aI-1462
aF-368
aF347.75999999999999
aF-94.760000000000005
aa(lp98
g3
ag4
aI0
aF11.930986166000366
aF0.57999999999999996
aF-0.90000000000000002
aF-0.089999999999999997
aI501
aI140
aI1822
aF-367.07999999999998
aF351.44
aF-98.439999999999998
aa(lp99
g3
ag4
aI0
aF12.04692816734314
aF0.63
aF-0.90000000000000002
aF-0.080000000000000002
aI-1365
aI1200
aI2479
aF-358.80000000000001
aF369.83999999999997
aF-101.2
aa(lp100
g3
ag4
aI0
aF12.16349196434021
aF0.55000000000000004
aF-0.91000000000000003
aF-0.070000000000000007
aI-1688
aI151
aI5715
aF-343.16000000000003
aF402.95999999999998
aF-94.760000000000005
aa(lp101
g3
ag4
aI0
aF12.331912994384766
aF0.46000000000000002
aF-0.96999999999999997
aF-0.089999999999999997
aI-1759
aI818
aI11513
aF-326.60000000000002
aF435.16000000000003
aF-99.359999999999999
aa(lp102
g3
ag4
aI0
aF12.431988954544067
aF0.29999999999999999
aF-1.02
aF-0.089999999999999997
aI-882
aI1016
aI16530
aF-255.75999999999999
aF517.96000000000004
aF-95.680000000000007
aa(lp103
g3
ag4
aI0
aF12.531804084777832
aF0.14000000000000001
aF-1.0900000000000001
aF-0.089999999999999997
aI-325
aI1147
aI17585
aF-138
aF602.60000000000002
aF-87.400000000000006
aa(lp104
g3
ag4
aI0
aF12.638288974761963
aF-0.070000000000000007
aF-1.0600000000000001
aF-0.12
aI-101
aI1642
aI15571
aF2.7599999999999998
aF641.24000000000001
aF-80.959999999999994
aa(lp105
g3
ag4
aI0
aF12.769488096237183
aF-0.27000000000000002
aF-0.97999999999999998
aF-0.16
aI-176
aI2432
aI11402
aF134.31999999999999
aF644
aF-71.760000000000005
aa(lp106
g3
ag4
aI0
aF12.931312084197998
aF-0.39000000000000001
aF-0.84999999999999998
aF-0.14999999999999999
aI566
aI272
aI6650
aF223.56
aF618.24000000000001
aF-63.479999999999997
aa(lp107
g3
ag4
aI0
aF13.031660079956055
aF-0.48999999999999999
aF-0.73999999999999999
aF-0.17000000000000001
aI694
aI-1668
aI2300
aF268.63999999999999
aF598
aF-63.479999999999997
aa(lp108
g3
ag4
aI0
aF13.152313947677612
aF-0.55000000000000004
aF-0.68000000000000005
aF-0.16
aI-41
aI-256
aI-1163
aF274.16000000000003
aF597.08000000000004
aF-69
aa(lp109
g3
ag4
aI0
aF13.268525123596191
aF-0.52000000000000002
aF-0.67000000000000004
aF-0.19
aI-375
aI-633
aI-5902
aF243.80000000000001
aF610.88
aF-67.159999999999997
aa(lp110
g3
ag4
aI0
aF13.431834936141968
aF-0.51000000000000001
aF-0.80000000000000004
aF-0.20000000000000001
aI624
aI-2163
aI-13738
aF149.96000000000001
aF639.39999999999998
aF-72.680000000000007
aa(lp111
g3
ag4
aI0
aF13.531779050827026
aF-0.27000000000000002
aF-0.93999999999999995
aF-0.14000000000000001
aI911
aI3793
aI-17690
aF10.119999999999999
aF646.75999999999999
aF-80.040000000000006
aa(lp112
g3
ag4
aI0
aF13.635941982269287
aF-0.13
aF-1.02
aF-0.22
aI598
aI-2796
aI-17943
aF-144.44
aF599.84000000000003
aF-92.920000000000002
aa(lp113
g3
ag4
aI0
aF13.776960134506226
aF0.080000000000000002
aF-1.04
aF-0.13
aI1124
aI-3287
aI-15248
aF-202.40000000000001
aF561.20000000000005
aF-100.28
aa(lp114
g3
ag4
aI0
aF13.93155312538147
aF0.29999999999999999
aF-1.02
aF-0.14999999999999999
aI1288
aI-3377
aI-11617
aF-298.07999999999998
aF472.88
aF-94.760000000000005
aa(lp115
g3
ag4
aI0
aF14.040998935699463
aF0.42999999999999999
aF-0.97999999999999998
aF-0.10000000000000001
aI1213
aI-1089
aI-7073
aF-346.83999999999997
aF394.68000000000001
aF-81.879999999999995
aa(lp116
g3
ag4
aI0
aF14.167418956756592
aF0.51000000000000001
aF-0.92000000000000004
aF-0.10000000000000001
aI1507
aI-628
aI-2595
aF-369.83999999999997
aF337.63999999999999
aF-82.799999999999997
aa(lp117
g3
ag4
aI0
aF14.331712007522583
aF0.56000000000000005
aF-0.89000000000000001
aF-0.10000000000000001
aI78
aI716
aI2517
aF-376.27999999999997
aF322.92000000000002
aF-84.640000000000001
aa(lp118
g3
ag4
aI0
aF14.430844068527222
aF0.59999999999999998
aF-0.90000000000000002
aF-0.089999999999999997
aI-1355
aI2698
aI7249
aF-362.48000000000002
aF350.51999999999998
aF-92
aa(lp119
g3
ag4
aI0
aF14.531772136688232
aF0.52000000000000002
aF-0.94999999999999996
aF-0.089999999999999997
aI-2443
aI1077
aI12433
aF-333.04000000000002
aF418.60000000000002
aF-101.2
aa(lp120
g3
ag4
aI0
aF14.649646043777466
aF0.45000000000000001
aF-1.02
aF-0.11
aI-1386
aI552
aI15345
aF-260.36000000000001
aF508.75999999999999
aF-103.95999999999999
aa(lp121
g3
ag4
aI0
aF14.770538091659546
aF0.25
aF-1.0700000000000001
aF-0.070000000000000007
aI-1116
aI2336
aI17931
aF-149.03999999999999
aF595.24000000000001
aF-91.079999999999998
aa(lp122
g3
ag4
aI0
aF14.931313037872314
aF0.02
aF-1.0600000000000001
aF-0.13
aI60
aI1054
aI16816
aF-3.6800000000000002
aF647.67999999999995
aF-83.719999999999999
aa(lp123
g3
ag4
aI0
aF15.031378030776978
aF-0.23000000000000001
aF-0.98999999999999999
aF-0.17000000000000001
aI-219
aI1519
aI15299
aF154.56
aF639.39999999999998
aF-72.680000000000007
aa(lp124
g3
ag4
aI0
aF15.145871162414551
aF-0.42999999999999999
aF-0.83999999999999997
aF-0.20000000000000001
aI-677
aI811
aI9552
aF266.80000000000001
aF600.75999999999999
aF-60.719999999999999
aa(lp125
g3
ag4
aI0
aF15.257194042205811
aF-0.52000000000000002
aF-0.69999999999999996
aF-0.17999999999999999
aI245
aI-903
aI3266
aF319.24000000000001
aF575.91999999999996
aF-57.960000000000001
aa(lp126
g3
ag4
aI0
aF15.399430990219116
aF-0.58999999999999997
aF-0.59999999999999998
aF-0.20000000000000001
aI47
aI-1544
aI-199
aF329.36000000000001
aF565.79999999999995
aF-57.960000000000001
aa(lp127
g3
ag4
aI0
aF15.531631946563721
aF-0.60999999999999999
aF-0.58999999999999997
aF-0.17999999999999999
aI25
aI687
aI-4376
aF324.75999999999999
aF572.24000000000001
aF-62.560000000000002
aa(lp128
g3
ag4
aI0
aF15.664796113967896
aF-0.58999999999999997
aF-0.66000000000000003
aF-0.20000000000000001
aI-547
aI689
aI-8632
aF276
aF598
aF-58.880000000000003
aa(lp129
g3
ag4
aI0
aF15.830942153930664
aF-0.46000000000000002
aF-0.78000000000000003
aF-0.17999999999999999
aI258
aI1214
aI-15502
aF182.16
aF638.48000000000002
aF-56.119999999999997
aa(lp130
g3
ag4
aI0
aF15.930721998214722
aF-0.34000000000000002
aF-0.87
aF-0.28000000000000003
aI332
aI-3925
aI-17186
aF33.119999999999997
aF651.36000000000001
aF-69
aa(lp131
g3
ag4
aI0
aF16.031414031982422
aF-0.080000000000000002
aF-1.01
aF-0.20000000000000001
aI1879
aI-383
aI-15496
aF-116.84
aF614.55999999999995
aF-85.560000000000002
aa(lp132
g3
ag4
aI0
aF16.140812158584595
aF0.11
aF-1.0900000000000001
aF-0.14999999999999999
aI1149
aI-2930
aI-13379
aF-227.24000000000001
aF544.63999999999999
aF-92
aa(lp133
g3
ag4
aI0
aF16.262148141860962
aF0.25
aF-1.0800000000000001
aF-0.13
aI633
aI-3005
aI-10197
aF-298.07999999999998
aF473.80000000000001
aF-80.040000000000006
aa(lp134
g3
ag4
aI0
aF16.431668996810913
aF0.40999999999999998
aF-1
aF-0.14000000000000001
aI1020
aI-343
aI-6940
aF-338.56
aF409.39999999999998
aF-74.519999999999996
aa(lp135
g3
ag4
aI0
aF16.533509016036987
aF0.48999999999999999
aF-0.94999999999999996
aF-0.11
aI957
aI-491
aI-2854
aF-356.95999999999998
aF367.07999999999998
aF-73.599999999999994
aa(lp136
g3
ag4
aI0
aF16.648420095443726
aF0.51000000000000001
aF-0.93000000000000005
aF-0.12
aI173
aI165
aI2157
aF-364.31999999999999
aF361.56
aF-76.359999999999999
aa(lp137
g3
ag4
aI0
aF16.76963996887207
aF0.51000000000000001
aF-0.94999999999999996
aF-0.11
aI-443
aI1873
aI7244
aF-345
aF396.51999999999998
aF-87.400000000000006
aa(lp138
g3
ag4
aI0
aF16.931015968322754
aF0.45000000000000001
aF-1
aF-0.11
aI-1194
aI1666
aI11873
aF-299
aF471.04000000000002
aF-93.840000000000003
aa(lp139
g3
ag4
aI0
aF17.030441045761108
aF0.35999999999999999
aF-1.04
aF-0.12
aI-654
aI1684
aI15778
aF-210.68000000000001
aF558.44000000000005
aF-92.920000000000002
aa(lp140
g3
ag4
aI0
aF17.139708995819092
aF0.17000000000000001
aF-1.0800000000000001
aF-0.14000000000000001
aI-969
aI176
aI16911
aF-149.03999999999999
aF597.08000000000004
aF-88.319999999999993
aa(lp141
g3
ag4
aI0
aF17.255959987640381
aF-0.029999999999999999
aF-1.03
aF-0.14999999999999999
aI-1087
aI1230
aI16704
aF-12.880000000000001
aF643.08000000000004
aF-78.200000000000003
aa(lp142
g3
ag4
aI0
aF17.393526077270508
aF-0.23000000000000001
aF-0.94999999999999996
aF-0.17999999999999999
aI-742
aI3329
aI12290
aF128.80000000000001
aF644
aF-56.119999999999997
aa(lp143
g3
ag4
aI0
aF17.53178596496582
aF-0.40000000000000002
aF-0.81999999999999995
aF-0.20000000000000001
aI-247
aI1798
aI6176
aF226.31999999999999
aF618.24000000000001
aF-42.32
aa(lp144
g3
ag4
aI0
aF17.631675004959106
aF-0.46000000000000002
aF-0.72999999999999998
aF-0.22
aI86
aI1672
aI1645
aF264.95999999999998
aF599.84000000000003
aF-35.880000000000003
aa(lp145
g3
ag4
aI0
aF17.779765129089355
aF-0.48999999999999999
aF-0.67000000000000004
aF-0.23999999999999999
aI145
aI-279
aI-1095
aF271.39999999999998
aF598
aF-34.039999999999999
aa(lp146
g3
ag4
aI0
aF17.931679964065552
aF-0.52000000000000002
aF-0.68999999999999995
aF-0.23000000000000001
aI609
aI-897
aI-6675
aF246.56
aF610.88
aF-42.32
aa(lp147
g3
ag4
aI0
aF18.031697034835815
aF-0.48999999999999999
aF-0.78000000000000003
aF-0.26000000000000001
aI1139
aI-1108
aI-12782
aF161
aF641.24000000000001
aF-49.68
aa(lp148
g3
ag4
aI0
aF18.134624004364014
aF-0.31
aF-0.91000000000000003
aF-0.17000000000000001
aI2288
aI2780
aI-16205
aF29.440000000000001
aF650.44000000000005
aF-67.159999999999997
aa(lp149
g3
ag4
aI0
aF18.257040023803711
aF-0.20999999999999999
aF-0.97999999999999998
aF-0.17000000000000001
aI1055
aI-3181
aI-15161
aF-111.31999999999999
aF614.55999999999995
aF-92
aa(lp150
g3
ag4
aI0
aF18.387079954147339
aF0.050000000000000003
aF-1.0700000000000001
aF-0.12
aI2415
aI-960
aI-14837
aF-222.63999999999999
aF544.63999999999999
aF-107.64
aa(lp151
g3
ag4
aI0
aF18.531720161437988
aF0.25
aF-1.02
aF-0.13
aI1892
aI-2450
aI-11683
aF-302.68000000000001
aF462.75999999999999
aF-109.48
aa(lp152
g3
ag4
aI0
aF18.639904975891113
aF0.42999999999999999
aF-0.95999999999999996
aF-0.10000000000000001
aI1544
aI-1795
aI-7587
aF-345.92000000000002
aF393.75999999999999
aF-108.56
aa(lp153
g3
ag4
aI0
aF18.792324066162109
aF0.53000000000000003
aF-0.89000000000000001
aF-0.089999999999999997
aI1862
aI-2530
aI-4084
aF-365.24000000000001
aF344.07999999999998
aF-91.079999999999998
aa(lp154
g3
ag4
aI0
aF18.931549072265625
aF0.58999999999999997
aF-0.85999999999999999
aF-0.089999999999999997
aI331
aI-608
aI-1157
aF-372.60000000000002
aF325.68000000000001
aF-83.719999999999999
aa(lp155
g3
ag4
aI0
aF19.031037092208862
aF0.60999999999999999
aF-0.85999999999999999
aF-0.080000000000000002
aI-470
aI1295
aI3554
aF-372.60000000000002
aF326.60000000000002
aF-85.560000000000002
aa(lp156
g3
ag4
aI0
aF19.144533157348633
aF0.59999999999999998
aF-0.88
aF-0.11
aI-2870
aI1595
aI8685
aF-362.48000000000002
aF361.56
aF-88.319999999999993
aa(lp157
g3
ag4
aI0
aF19.259552001953125
aF0.52000000000000002
aF-0.96999999999999997
aF-0.11
aI-2188
aI4234
aI12535
aF-323.83999999999997
aF437
aF-94.760000000000005
aa(lp158
g3
ag4
aI0
aF19.43176794052124
aF0.38
aF-1.03
aF-0.13
aI-2391
aI2757
aI14338
aF-252.08000000000001
aF521.63999999999999
aF-104.88
aa(lp159
g3
ag4
aI0
aF19.531691074371338
aF0.23999999999999999
aF-1.0700000000000001
aF-0.16
aI-2024
aI856
aI14940
aF-152.72
aF594.32000000000005
aF-99.359999999999999
aa(lp160
g3
ag4
aI0
aF19.637235164642334
aF0.040000000000000001
aF-1.05
aF-0.17000000000000001
aI-1018
aI-346
aI13875
aF-32.200000000000003
aF636.63999999999999
aF-79.120000000000005
aa(lp161
g3
ag4
aI0
aF19.774932146072388
aF-0.11
aF-0.96999999999999997
aF-0.22
aI-692
aI773
aI11861
aF87.400000000000006
aF647.67999999999995
aF-67.159999999999997
aa(lp162
g3
ag4
aI0
aF19.931230068206787
aF-0.28999999999999998
aF-0.88
aF-0.22
aI-656
aI632
aI7349
aF184
aF632.03999999999996
aF-51.520000000000003
aa(lp163
g3
ag4
aI0
aF20.031183958053589
aF-0.39000000000000001
aF-0.78000000000000003
aF-0.23999999999999999
aI-107
aI-389
aI2258
aF230.91999999999999
aF615.48000000000002
aF-47.840000000000003
aa(lp164
g3
ag4
aI0
aF20.143387079238892
aF-0.46999999999999997
aF-0.75
aF-0.20000000000000001
aI148
aI762
aI-1770
aF232.75999999999999
aF618.24000000000001
aF-46
aa(lp165
g3
ag4
aI0
aF20.263275146484375
aF-0.46000000000000002
aF-0.73999999999999999
aF-0.20999999999999999
aI511
aI955
aI-5870
aF200.56
aF629.27999999999997
aF-49.68
aa(lp166
g3
ag4
aI0
aF20.430451154708862
aF-0.45000000000000001
aF-0.83999999999999997
aF-0.23000000000000001
aI1344
aI-928
aI-11687
aF122.36
aF644.91999999999996
aF-63.479999999999997
aa(lp167
g3
ag4
aI0
aF20.531691074371338
aF-0.23000000000000001
aF-0.93999999999999995
aF-0.13
aI1663
aI3483
aI-15751
aF-4.5999999999999996
aF643.08000000000004
aF-80.040000000000006
aa(lp168
g3
ag4
aI0
aF20.640972137451172
aF-0.059999999999999998
aF-1.0700000000000001
aF-0.23000000000000001
aI2508
aI-2373
aI-17058
aF-77.280000000000001
aF626.51999999999998
aF-88.319999999999993
aa(lp169
g3
ag4
aI0
aF20.762194156646729
aF0.10000000000000001
aF-1.0900000000000001
aF-0.20000000000000001
aI1949
aI-819
aI-14181
aF-195.96000000000001
aF561.20000000000005
aF-111.31999999999999
aa(lp170
g3
ag4
aI0
aF20.931210994720459
aF0.29999999999999999
aF-1.05
aF-0.14000000000000001
aI1346
aI-2385
aI-12148
aF-287.04000000000002
aF478.39999999999998
aF-119.59999999999999
aa(lp171
g3
ag4
aI0
aF21.030924081802368
aF0.44
aF-0.93999999999999995
aF-0.089999999999999997
aI2324
aI-1706
aI-8549
aF-470.12
aF-20961.279999999999
aF-15301.440000000001
aa(lp172
g3
ag4
aI0
aF21.178518056869507
aF0.57999999999999996
aF-0.87
aF-0.089999999999999997
aI1866
aI-1203
aI-4121
aF-369.83999999999997
aF328.44
aF-110.40000000000001
aa(lp173
g3
ag4
aI0
aF21.331597089767456
aF0.63
aF-0.84999999999999998
aF-0.10000000000000001
aI881
aI-594
aI458
aF-380.88
aF299
aF-109.48
aa(lp174
g3
ag4
aI0
aF21.43154501914978
aF0.64000000000000001
aF-0.85999999999999999
aF-0.10000000000000001
aI-1936
aI1093
aI6250
aF-377.19999999999999
aF310.95999999999998
aF-106.72
aa(lp175
g3
ag4
aI0
aF21.556074142456055
aF0.59999999999999998
aF-0.92000000000000004
aF-0.070000000000000007
aI-2925
aI1769
aI12146
aF-354.19999999999999
aF375.36000000000001
aF-108.56
aa(lp176
g3
ag4
aI0
aF21.65849494934082
aF0.5
aF-1.01
aF-0.13
aI-2666
aI812
aI14647
aF-293.48000000000002
aF476.56
aF-105.8
aa(lp177
g3
ag4
aI0
aF21.831648111343384
aF0.34999999999999998
aF-1.04
aF-0.12
aI-1859
aI1712
aI15666
aF-199.63999999999999
aF563.03999999999996
aF-93.840000000000003
aa(lp178
g3
ag4
aI0
aF21.930359125137329
aF0.20000000000000001
aF-1.01
aF-0.14999999999999999
aI-932
aI1214
aI15985
aF-77.280000000000001
aF623.75999999999999
aF-76.359999999999999
aa(lp179
g3
ag4
aI0
aF22.035683155059814
aF0.01
aF-1.02
aF-0.20000000000000001
aI832
aI263
aI10890
aF44.159999999999997
aF650.44000000000005
aF-68.079999999999998
aa(lp180
g3
ag4
aI0
aF22.154523134231567
aF-0.20999999999999999
aF-0.93000000000000005
aF-0.22
aI253
aI931
aI10471
aF142.59999999999999
aF642.15999999999997
aF-64.400000000000006
aa(lp181
g3
ag4
aI0
aF22.298267126083374
aF-0.40999999999999998
aF-0.84999999999999998
aF-0.20000000000000001
aI-231
aI1460
aI6027
aF225.40000000000001
aF2037.8
aF461.83999999999997
aa(lp182
g3
ag4
aI0
aF22.43127703666687
aF-0.44
aF-0.75
aF-0.23999999999999999
aI-440
aI-674
aI136
aF250.24000000000001
aF608.12
aF-50.600000000000001
aa(lp183
g3
ag4
aI0
aF22.537256002426147
aF-0.45000000000000001
aF-0.72999999999999998
aF-0.23999999999999999
aI-225
aI-1433
aI-6165
aF221.72
aF623.75999999999999
aF-55.200000000000003
aa(lp184
g3
ag4
aI0
aF22.653558969497681
aF-0.37
aF-0.77000000000000002
aF-0.25
aI-580
aI-1354
aI-12962
aF121.44
aF648.60000000000002
aF-60.719999999999999
aa(lp185
g3
ag4
aI0
aF22.775814056396484
aF-0.20999999999999999
aF-0.93999999999999995
aF-0.23000000000000001
aI148
aI1936
aI-18233
aF49.68
aF647.67999999999995
aF-63.479999999999997
aa(lp186
g3
ag4
aI0
aF22.935878992080688
aF-0.11
aF-1.02
aF-0.28000000000000003
aI-187
aI-2019
aI-17821
aF-107.64
aF613.63999999999999
aF-77.280000000000001
aa(lp187
g3
ag4
aI0
aF23.031875133514404
aF0.17000000000000001
aF-1.0700000000000001
aF-0.25
aI836
aI-858
aI-15675
aF-233.68000000000001
aF537.27999999999997
aF-80.959999999999994
aa(lp188
g3
ag4
aI0
aF23.157294034957886
aF0.37
aF-0.96999999999999997
aF-0.20999999999999999
aI-671
aI-1092
aI-13202
aF-318.31999999999999
aF437
aF-77.280000000000001
aa(lp189
g3
ag4
aI0
aF23.331568956375122
aF0.55000000000000004
aF-0.87
aF-0.17999999999999999
aI1265
aI2265
aI-8822
aF-367.07999999999998
aF340.39999999999998
aF-71.760000000000005
aa(lp190
g3
ag4
aI0
aF23.431540966033936
aF0.64000000000000001
aF-0.78000000000000003
aF-0.17000000000000001
aI1085
aI-474
aI-4142
aF-385.48000000000002
aF275.07999999999998
aF-89.239999999999995
aa(lp191
g3
ag4
aI0
aF23.574617147445679
aF0.68000000000000005
aF-0.73999999999999999
aF-0.14999999999999999
aI776
aI38
aI1891
aF-391
aF253.91999999999999
aF-90.159999999999997
aa(lp192
g3
ag4
aI0
aF23.731497049331665
aF0.69999999999999996
aF-0.78000000000000003
aF-0.17999999999999999
aI-451
aI755
aI7326
aF-381.80000000000001
aF288.88
aF-91.079999999999998
aa(lp193
g3
ag4
aI0
aF23.831555128097534
aF0.63
aF-0.83999999999999997
aF-0.17000000000000001
aI-2874
aI1872
aI12095
aF-356.04000000000002
aF369.83999999999997
aF-95.680000000000007
aa(lp194
g3
ag4
aI0
aF23.930367946624756
aF0.55000000000000004
aF-0.94999999999999996
aF-0.20000000000000001
aI-2745
aI606
aI14680
aF-300.83999999999997
aF471.95999999999998
aF-92.920000000000002
aa(lp195
g3
ag4
aI0
aF24.030652046203613
aF0.38
aF-1.02
aF-0.20999999999999999
aI-583
aI-614
aI17884
aF-195.03999999999999
aF564.88
aF-80.959999999999994
aa(lp196
g3
ag4
aI0
aF24.173346996307373
aF0.13
aF-1.0600000000000001
aF-0.22
aI1952
aI-4666
aI17271
aF-53.359999999999999
aF631.12
aF-72.680000000000007
aa(lp197
g3
ag4
aI0
aF24.330708980560303
aF-0.12
aF-1.04
aF-0.20999999999999999
aI708
aI-1861
aI14917
aF92.920000000000002
aF643.08000000000004
aF-69.920000000000002
aa(lp198
g3
ag4
aI0
aF24.431560039520264
aF-0.27000000000000002
aF-0.92000000000000004
aF-0.22
aI101
aI2779
aI6988
aF180.31999999999999
aF633.88
aF-59.799999999999997
aa(lp199
g3
ag4
aI0
aF24.546077966690063
aF-0.34999999999999998
aF-0.80000000000000004
aF-0.23000000000000001
aI-291
aI2310
aI5793
aF209.75999999999999
aF621.91999999999996
aF-57.960000000000001
aa(lp200
g3
ag4
aI0
aF24.660932064056396
aF-0.42999999999999999
aF-0.75
aF-0.23000000000000001
aI-217
aI864
aI107
aF244.72
aF609.03999999999996
aF-48.759999999999998
aa(lp201
g3
ag4
aI0
aF24.831567049026489
aF-0.51000000000000001
aF-0.70999999999999996
aF-0.26000000000000001
aI-18
aI-4848
aI-3215
aF237.36000000000001
aF612.72000000000003
aF-49.68
aa(lp202
g3
ag4
aI0
aF24.931656122207642
aF-0.44
aF-0.77000000000000002
aF-0.22
aI-566
aI-894
aI-8722
aF197.80000000000001
aF624.67999999999995
aF-58.880000000000003
aa(lp203
g3
ag4
aI0
aF25.033302068710327
aF-0.39000000000000001
aF-0.84999999999999998
aF-0.26000000000000001
aI-1249
aI-1924
aI-14981
aF91.079999999999998
aF646.75999999999999
aF-61.640000000000001
aa.