(lp1
(lp2
S'Dan'
p3
aS'tricep'
p4
aI0
aF0.00020194053649902344
aF-0.34000000000000002
aF0.93000000000000005
aF-0.059999999999999998
aI273
aI-358
aI2105
aF235.52000000000001
aF-241.03999999999999
aF188.59999999999999
aa(lp5
g3
ag4
aI0
aF0.24909090995788574
aF-0.22
aF0.85999999999999999
aF-0.059999999999999998
aI-666
aI730
aI1973
aF218.96000000000001
aF-245.63999999999999
aF187.68000000000001
aa(lp6
g3
ag4
aI0
aF0.36422395706176758
aF-0.17999999999999999
aF0.81000000000000005
aF-0.01
aI-1716
aI-1073
aI2827
aF200.56
aF-256.68000000000001
aF182.16
aa(lp7
g3
ag4
aI0
aF0.48369193077087402
aF-0.12
aF0.93000000000000005
aF-0.050000000000000003
aI-1253
aI731
aI3832
aF180.31999999999999
aF-271.39999999999998
aF172.03999999999999
aa(lp8
g3
ag4
aI0
aF0.6436619758605957
aF-0.080000000000000002
aF1.0900000000000001
aF0.01
aI-2604
aI2823
aI1568
aF144.44
aF-289.80000000000001
aF152.72
aa(lp9
g3
ag4
aI0
aF0.75156307220458984
aF-0.17000000000000001
aF1.1100000000000001
aF-0.02
aI1324
aI155
aI-2134
aF127.88
aF-299
aF149.96000000000001
aa(lp10
g3
ag4
aI0
aF0.84781599044799805
aF-0.20000000000000001
aF1.03
aF-0.02
aI1983
aI-2176
aI-5388
aF158.24000000000001
aF-288.88
aF161
aa(lp11
g3
ag4
aI0
aF0.98654699325561523
aF-0.23999999999999999
aF0.98999999999999999
aF-0.040000000000000001
aI2624
aI374
aI-6996
aF215.28
aF-261.27999999999997
aF173.88
aa(lp12
g3
ag4
aI0
aF1.1442348957061768
aF-0.22
aF0.89000000000000001
aF0.01
aI693
aI-1666
aI-3454
aF265.88
aF-225.40000000000001
aF188.59999999999999
aa(lp13
g3
ag4
aI0
aF1.2442750930786133
aF-0.20999999999999999
aF0.88
aF-0.050000000000000003
aI123
aI2578
aI6368
aF261.27999999999997
aF-224.47999999999999
aF189.52000000000001
aa(lp14
g3
ag4
aI0
aF1.3525340557098389
aF-0.14999999999999999
aF0.93000000000000005
aF-0.029999999999999999
aI-772
aI179
aI12149
aF187.68000000000001
aF-258.51999999999998
aF192.28
aa(lp15
g3
ag4
aI0
aF1.4850389957427979
aF0.080000000000000002
aF1.01
aF-0.040000000000000001
aI-2177
aI1437
aI16794
aF67.159999999999997
aF-279.68000000000001
aF185.84
aa(lp16
g3
ag4
aI0
aF1.6436059474945068
aF0.31
aF1
aF-0.050000000000000003
aI-2597
aI4215
aI20860
aF-92
aF-259.44
aF169.28
aa(lp17
g3
ag4
aI0
aF1.7443029880523682
aF0.57999999999999996
aF0.92000000000000004
aF-0.02
aI-4964
aI5772
aI23029
aF-179.40000000000001
aF-219.88
aF147.19999999999999
aa(lp18
g3
ag4
aI0
aF1.8502380847930908
aF0.80000000000000004
aF0.82999999999999996
aF0.14000000000000001
aI-4790
aI-6137
aI24058
aF-325.68000000000001
aF-90.159999999999997
aF105.8
aa(lp19
g3
ag4
aI0
aF1.9953429698944092
aF0.76000000000000001
aF0.34000000000000002
aF0.14000000000000001
aI1822
aI640
aI1720
aF-370.75999999999999
aF67.159999999999997
aF114.08
aa(lp20
g3
ag4
aI0
aF2.1441769599914551
aF0.69999999999999996
aF0.32000000000000001
aF0
aI3440
aI-2956
aI-9859
aF-366.16000000000003
aF72.680000000000007
aF126.95999999999999
aa(lp21
g3
ag4
aI0
aF2.2440738677978516
aF0.81000000000000005
aF0.34999999999999998
aF-0.01
aI7329
aI-683
aI-19279
aF-333.95999999999998
aF-15301.440000000001
aF0.92000000000000004
aa(lp22
g3
ag4
aI0
aF2.3487379550933838
aF0.69999999999999996
aF0.58999999999999997
aF-0.089999999999999997
aI5155
aI-9134
aI-24735
aF-218.03999999999999
aF-122.36
aF214.36000000000001
aa(lp23
g3
ag4
aI0
aF2.4889888763427734
aF0.59999999999999998
aF0.93000000000000005
aF-0.14999999999999999
aI3287
aI-4277
aI-24504
aF-40.479999999999997
aF-193.19999999999999
aF254.84
aa(lp24
g3
ag4
aI0
aF2.6442029476165771
aF0.34000000000000002
aF0.97999999999999998
aF-0.22
aI-537
aI-3736
aI-17940
aF136.16
aF-188.59999999999999
aF267.72000000000003
aa(lp25
g3
ag4
aI0
aF2.7443089485168457
aF0.10000000000000001
aF0.88
aF-0.23999999999999999
aI-1094
aI-4890
aI-12020
aF255.75999999999999
aF-147.19999999999999
aF253
aa(lp26
g3
ag4
aI0
aF2.8515970706939697
aF-0.19
aF0.88
aF-0.23000000000000001
aI-200
aI9
aI2001
aF309.12
aF-132.47999999999999
aF235.52000000000001
aa(lp27
g3
ag4
aI0
aF2.9827759265899658
aF-0.14999999999999999
aF0.87
aF-0.25
aI-727
aI8991
aI6622
aF243.80000000000001
aF-149.96000000000001
aF257.60000000000002
aa(lp28
g3
ag4
aI0
aF3.1442239284515381
aF-0.040000000000000001
aF0.93000000000000005
aF-0.23999999999999999
aI-1983
aI2544
aI14572
aF150.88
aF-192.28
aF263.12
aa(lp29
g3
ag4
aI0
aF3.2442100048065186
aF0.14999999999999999
aF1.01
aF-0.23999999999999999
aI-4435
aI981
aI20987
aF18.399999999999999
aF-221.72
aF248.40000000000001
aa(lp30
g3
ag4
aI0
aF3.3465540409088135
aF0.42999999999999999
aF1
aF-0.17000000000000001
aI-7370
aI7742
aI24613
aF-69.920000000000002
aF-216.19999999999999
aF228.16
aa(lp31
g3
ag4
aI0
aF3.4912450313568115
aF0.81000000000000005
aF0.81999999999999995
aF-0.02
aI-10985
aI7481
aI24024
aF-260.36000000000001
aF-146.28
aF149.96000000000001
aa(lp32
g3
ag4
aI0
aF3.6441149711608887
aF0.77000000000000002
aF0.59999999999999998
aF0.050000000000000003
aI-10511
aI-5215
aI23992
aF-376.27999999999997
aF6.4400000000000004
aF80.959999999999994
aa(lp33
g3
ag4
aI0
aF3.7440869808197021
aF0.67000000000000004
aF0.19
aF0.029999999999999999
aI173
aI-2873
aI1088
aF-390.07999999999998
aF152.72
aF84.640000000000001
aa(lp34
g3
ag4
aI0
aF3.8590929508209229
aF0.62
aF0.040000000000000001
aF-0.01
aI5922
aI67
aI-13758
aF-379.95999999999998
aF141.68000000000001
aF115.92
aa(lp35
g3
ag4
aI0
aF3.97918701171875
aF0.81999999999999995
aF0.42999999999999999
aF-0.01
aI9957
aI-4666
aI-22501
aF-361.56
aF24.84
aF117.76000000000001
aa(lp36
g3
ag4
aI0
aF4.144273042678833
aF0.81999999999999995
aF0.64000000000000001
aF-0.080000000000000002
aI8045
aI-3229
aI-24077
aF-253
aF-113.16
aF184.91999999999999
aa(lp37
g3
ag4
aI0
aF4.2440729141235352
aF0.67000000000000004
aF0.84999999999999998
aF-0.14999999999999999
aI6608
aI-8603
aI-23715
aF-108.56
aF-190.44
aF232.75999999999999
aa(lp38
g3
ag4
aI0
aF4.35263991355896
aF0.26000000000000001
aF1.05
aF-0.20000000000000001
aI2144
aI-4613
aI-24267
aF99.359999999999999
aF-187.68000000000001
aF274.16000000000003
aa(lp39
g3
ag4
aI0
aF4.4827959537506104
aF0.29999999999999999
aF0.93999999999999995
aF-0.28000000000000003
aI-475
aI-6781
aI-13368
aF240.12
aF-130.63999999999999
aF274.16000000000003
aa(lp40
g3
ag4
aI0
aF4.6441059112548828
aF-0.089999999999999997
aF0.84999999999999998
aF-0.28999999999999998
aI2423
aI3280
aI4743
aF286.12
aF-118.68000000000001
aF255.75999999999999
aa(lp41
g3
ag4
aI0
aF4.7440340518951416
aF-0.17000000000000001
aF0.82999999999999996
aF-0.27000000000000002
aI-515
aI1577
aI3964
aF236.44
aF-131.56
aF276
aa(lp42
g3
ag4
aI0
aF4.8465359210968018
aF-0.050000000000000003
aF0.90000000000000002
aF-0.28999999999999998
aI-2502
aI4714
aI14226
aF165.59999999999999
aF-164.68000000000001
aF276.92000000000002
aa(lp43
g3
ag4
aI0
aF4.9927079677581787
aF0.13
aF1
aF-0.31
aI-4994
aI4575
aI25057
aF7.3600000000000003
aF-205.16
aF258.51999999999998
aa(lp44
g3
ag4
aI0
aF5.1441130638122559
aF0.38
aF1.03
aF-0.14000000000000001
aI-9789
aI9484
aI26922
aF-103.04000000000001
aF-195.96000000000001
aF232.75999999999999
aa(lp45
g3
ag4
aI0
aF5.2440509796142578
aF0.76000000000000001
aF0.88
aF0.01
aI-11358
aI9357
aI22900
aF-300.83999999999997
aF-103.95999999999999
aF132.47999999999999
aa(lp46
g3
ag4
aI0
aF5.3790159225463867
aF0.80000000000000004
aF0.70999999999999996
aF0.050000000000000003
aI-10072
aI-4406
aI21189
aF-388.24000000000001
aF55.200000000000003
aF76.359999999999999
aa(lp47
g3
ag4
aI0
aF5.5431129932403564
aF0.68999999999999995
aF0.19
aF-0.01
aI615
aI-4250
aI-1271
aF-386.39999999999998
aF172.03999999999999
aF91.079999999999998
aa(lp48
g3
ag4
aI0
aF5.6433639526367188
aF0.75
aF0.17000000000000001
aF-0.029999999999999999
aI4899
aI513
aI-12065
aF-376.27999999999997
aF141.68000000000001
aF117.76000000000001
aa(lp49
g3
ag4
aI0
aF5.7434439659118652
aF0.85999999999999999
aF0.23000000000000001
aF-0.02
aI9239
aI-4256
aI-22466
aF-354.19999999999999
aF27.600000000000001
aF134.31999999999999
aa(lp50
g3
ag4
aI0
aF5.8553690910339355
aF0.80000000000000004
aF0.59999999999999998
aF-0.070000000000000007
aI7661
aI-5452
aI-24024
aF-258.51999999999998
aF-104.88
aF186.75999999999999
aa(lp51
g3
ag4
aI0
aF5.9677970409393311
aF0.64000000000000001
aF0.89000000000000001
aF-0.20000000000000001
aI4463
aI-5543
aI-22958
aF-92.920000000000002
aF-181.24000000000001
aF249.31999999999999
aa(lp52
g3
ag4
aI0
aF6.1078341007232666
aF0.37
aF1.02
aF-0.26000000000000001
aI2943
aI-4701
aI-18895
aF73.599999999999994
aF-187.68000000000001
aF275.07999999999998
aa(lp53
g3
ag4
aI0
aF6.2440829277038574
aF0.22
aF0.90000000000000002
aF-0.28000000000000003
aI2441
aI-4040
aI-13598
aF195.03999999999999
aF-139.84
aF284.27999999999997
aa(lp54
g3
ag4
aI0
aF6.3890349864959717
aF-0.059999999999999998
aF0.81000000000000005
aF-0.28999999999999998
aI1283
aI510
aI1954
aF257.60000000000002
aF-115
aF271.39999999999998
aa(lp55
g3
ag4
aI0
aF6.5441570281982422
aF-0.14000000000000001
aF0.81999999999999995
aF-0.28999999999999998
aI-1296
aI2818
aI4978
aF209.75999999999999
aF-123.28
aF289.80000000000001
aa(lp56
g3
ag4
aI0
aF6.6426279544830322
aF-0.029999999999999999
aF0.91000000000000003
aF-0.32000000000000001
aI-3964
aI5020
aI13993
aF134.31999999999999
aF-165.59999999999999
aF282.44
aa(lp57
g3
ag4
aI0
aF6.7441508769989014
aF0.050000000000000003
aF0.98999999999999999
aF-0.29999999999999999
aI-5027
aI5462
aI20061
aF-6.4400000000000004
aF-202.40000000000001
aF261.27999999999997
aa(lp58
g3
ag4
aI0
aF6.8553400039672852
aF0.37
aF0.96999999999999997
aF-0.20000000000000001
aI-6792
aI6246
aI19847
aF-95.680000000000007
aF-199.63999999999999
aF235.52000000000001
aa(lp59
g3
ag4
aI0
aF6.9678120613098145
aF0.66000000000000003
aF0.85999999999999999
aF-0.070000000000000007
aI-8904
aI8505
aI19485
aF-248.40000000000001
aF-146.28
aF167.44
aa(lp60
g3
ag4
aI0
aF7.1090619564056396
aF0.88
aF0.68000000000000005
aF0.11
aI-9951
aI951
aI19241
aF-355.12
aF-38.640000000000001
aF88.319999999999993
aa(lp61
g3
ag4
aI0
aF7.2434930801391602
aF0.82999999999999996
aF0.45000000000000001
aF0.20999999999999999
aI-6483
aI-4960
aI13357
aF-392.83999999999997
aF96.599999999999994
aF68.079999999999998
aa(lp62
g3
ag4
aI0
aF7.34403395652771
aF0.81000000000000005
aF0.080000000000000002
aF0.080000000000000002
aI-276
aI-3223
aI-292
aF-391.92000000000002
aF167.44
aF82.799999999999997
aa(lp63
g3
ag4
aI0
aF7.4614760875701904
aF0.78000000000000003
aF0.10000000000000001
aF0.059999999999999998
aI5311
aI833
aI-9525
aF-380.88
aF143.52000000000001
aF103.95999999999999
aa(lp64
g3
ag4
aI0
aF7.5839970111846924
aF0.93000000000000005
aF0.17999999999999999
aF0.029999999999999999
aI6629
aI-981
aI-14827
aF-372.60000000000002
aF55.200000000000003
aF106.72
aa(lp65
g3
ag4
aI0
aF7.7437450885772705
aF0.93000000000000005
aF0.47999999999999998
aF0.040000000000000001
aI7881
aI-3159
aI-18444
aF-323.83999999999997
aF-51.520000000000003
aF140.75999999999999
aa(lp66
g3
ag4
aI0
aF7.8441550731658936
aF0.90000000000000002
aF0.59999999999999998
aF-0.029999999999999999
aI5829
aI-4612
aI-19438
aF-221.72
aF-146.28
aF193.19999999999999
aa(lp67
g3
ag4
aI0
aF7.9864170551300049
aF0.69999999999999996
aF0.81000000000000005
aF-0.11
aI2588
aI-9272
aI-18044
aF-61.640000000000001
aF-203.31999999999999
aF246.56
aa(lp68
g3
ag4
aI0
aF8.1446828842163086
aF0.39000000000000001
aF0.94999999999999996
aF-0.19
aI1518
aI-3452
aI-16668
aF88.319999999999993
aF-206.08000000000001
aF263.12
aa(lp69
g3
ag4
aI0
aF8.2433309555053711
aF0.12
aF0.93000000000000005
aF-0.23000000000000001
aI379
aI-7739
aI-15249
aF223.56
aF-168.36000000000001
aF258.51999999999998
aa(lp70
g3
ag4
aI0
aF8.3434929847717285
aF-0.050000000000000003
aF0.84999999999999998
aF-0.20999999999999999
aI144
aI-2781
aI-6129
aF273.24000000000001
aF-144.44
aF249.31999999999999
aa(lp71
g3
ag4
aI0
aF8.4878690242767334
aF-0.28000000000000003
aF0.79000000000000004
aF-0.17999999999999999
aI331
aI2984
aI1864
aF310.04000000000002
aF-121.44
aF235.52000000000001
aa(lp72
g3
ag4
aI0
aF8.64398193359375
aF-0.28000000000000003
aF0.79000000000000004
aF-0.22
aI-1032
aI3803
aI2963
aF287.04000000000002
aF-120.52
aF253.91999999999999
aa(lp73
g3
ag4
aI0
aF8.7439639568328857
aF-0.27000000000000002
aF0.87
aF-0.25
aI-1170
aI-607
aI10395
aF254.84
aF-144.44
aF255.75999999999999
aa(lp74
g3
ag4
aI0
aF8.8564419746398926
aF-0.12
aF0.95999999999999996
aF-0.23000000000000001
aI-1175
aI1416
aI17307
aF188.59999999999999
aF-193.19999999999999
aF250.24000000000001
aa(lp75
g3
ag4
aI0
aF8.9764668941497803
aF0.14000000000000001
aF1.01
aF-0.20999999999999999
aI-3034
aI7461
aI22804
aF44.159999999999997
aF-225.40000000000001
aF244.72
aa(lp76
g3
ag4
aI0
aF9.1440470218658447
aF0.52000000000000002
aF0.98999999999999999
aF-0.12
aI-6312
aI12263
aI24386
aF-163.75999999999999
aF-192.28
aF197.80000000000001
aa(lp77
g3
ag4
aI0
aF9.2440528869628906
aF0.77000000000000002
aF0.85999999999999999
aF0.040000000000000001
aI-7866
aI6150
aI20498
aF-332.12
aF-74.519999999999996
aF106.72
aa(lp78
g3
ag4
aI0
aF9.3490049839019775
aF0.84999999999999998
aF0.56000000000000005
aF0.19
aI-9132
aI-1394
aI18652
aF-399.27999999999997
aF82.799999999999997
aF61.640000000000001
aa(lp79
g3
ag4
aI0
aF9.4776558876037598
aF0.80000000000000004
aF0.10000000000000001
aF0.17999999999999999
aI364
aI-1685
aI1000
aF-402.95999999999998
aF171.12
aF60.719999999999999
aa(lp80
g3
ag4
aI0
aF9.6440060138702393
aF0.79000000000000004
aF0.029999999999999999
aF0.11
aI3984
aI-3740
aI-10089
aF-390.07999999999998
aF133.40000000000001
aF90.159999999999997
aa(lp81
g3
ag4
aI0
aF9.7440199851989746
aF0.96999999999999997
aF0.16
aF0.070000000000000007
aI7351
aI-788
aI-17246
aF-368.92000000000002
aF22.079999999999998
aF100.28
aa(lp82
g3
ag4
aI0
aF9.8440399169921875
aF0.96999999999999997
aF0.35999999999999999
aF0.12
aI7590
aI-3902
aI-18949
aF-340.39999999999998
aF-34.960000000000001
aF117.76000000000001
aa(lp83
g3
ag4
aI0
aF9.9814050197601318
aF0.90000000000000002
aF0.60999999999999999
aF0.040000000000000001
aI4654
aI-3044
aI-16975
aF-251.16
aF-142.59999999999999
aF164.68000000000001
aa(lp84
g3
ag4
aI0
aF10.143959999084473
aF0.67000000000000004
aF0.83999999999999997
aF-0.02
aI4615
aI-1874
aI-17281
aF-138
aF-207.91999999999999
aF200.56
aa(lp85
g3
ag4
aI0
aF10.24395489692688
aF0.44
aF0.96999999999999997
aF-0.12
aI3692
aI-2929
aI-16029
aF-13.800000000000001
aF-235.52000000000001
aF230.91999999999999
aa(lp86
g3
ag4
aI0
aF10.343903064727783
aF0.13
aF0.97999999999999998
aF-0.19
aI2507
aI-5797
aI-13502
aF115.92
aF-217.12
aF251.16
aa(lp87
g3
ag4
aI0
aF10.465322971343994
aF0.050000000000000003
aF0.88
aF-0.17999999999999999
aI372
aI-3971
aI-9777
aF230
aF-171.12
aF253.91999999999999
aa(lp88
g3
ag4
aI0
aF10.587873935699463
aF-0.13
aF0.83999999999999997
aF-0.20000000000000001
aI296
aI2489
aI4636
aF278.75999999999999
aF-144.44
aF244.72
aa(lp89
g3
ag4
aI0
aF10.743227958679199
aF-0.13
aF0.90000000000000002
aF-0.22
aI-2203
aI2297
aI12843
aF213.44
aF-178.47999999999999
aF256.68000000000001
aa(lp90
g3
ag4
aI0
aF10.846719026565552
aF0.029999999999999999
aF1
aF-0.25
aI-2767
aI5083
aI19430
aF100.28
aF-223.56
aF247.47999999999999
aa(lp91
g3
ag4
aI0
aF10.965214014053345
aF0.23000000000000001
aF1.01
aF-0.19
aI-3581
aI3972
aI20910
aF-70.840000000000003
aF-220.80000000000001
aF225.40000000000001
aa(lp92
g3
ag4
aI0
aF11.111773014068604
aF0.48999999999999999
aF0.91000000000000003
aF-0.13
aI-6483
aI6984
aI20781
aF-229.08000000000001
aF-157.31999999999999
aF175.72
aa(lp93
g3
ag4
aI0
aF11.243449926376343
aF0.72999999999999998
aF0.68999999999999995
aF-0
aI-8241
aI5935
aI17894
aF-345
aF-49.68
aF101.2
aa(lp94
g3
ag4
aI0
aF11.343806028366089
aF0.91000000000000003
aF0.59999999999999998
aF0.089999999999999997
aI-9218
aI422
aI17767
aF-392.83999999999997
aF78.200000000000003
aF62.560000000000002
aa(lp95
g3
ag4
aI0
aF11.457805871963501
aF0.79000000000000004
aF0.17999999999999999
aF0.12
aI-1801
aI-2386
aI4990
aF-394.68000000000001
aF160.08000000000001
aF76.359999999999999
aa(lp96
g3
ag4
aI0
aF11.601721048355103
aF0.76000000000000001
aF0.070000000000000007
aF0.02
aI3756
aI-4146
aI-6618
aF-390.07999999999998
aF162.84
aF83.719999999999999
aa(lp97
g3
ag4
aI0
aF11.743999004364014
aF0.89000000000000001
aF0.12
aF0.089999999999999997
aI7487
aI2019
aI-16769
aF-384.56
aF102.12
aF98.439999999999998
aa(lp98
g3
ag4
aI0
aF11.843968868255615
aF0.89000000000000001
aF0.35999999999999999
aF0.12
aI7437
aI-3995
aI-18248
aF-351.44
aF-17.48
aF106.72
aa(lp99
g3
ag4
aI0
aF11.955206871032715
aF0.80000000000000004
aF0.68000000000000005
aF0.059999999999999998
aI7024
aI-5743
aI-21357
aF-264.95999999999998
aF-130.63999999999999
aF155.47999999999999
aa(lp100
g3
ag4
aI0
aF12.092886924743652
aF0.55000000000000004
aF0.90000000000000002
aF-0.050000000000000003
aI4889
aI-6157
aI-20800
aF-109.48
aF-207.91999999999999
aF217.12
aa(lp101
g3
ag4
aI0
aF12.244014024734497
aF0.34999999999999998
aF1.01
aF-0.13
aI2356
aI-5004
aI-16086
aF43.240000000000002
aF-223.56
aF250.24000000000001
aa(lp102
g3
ag4
aI0
aF12.355697870254517
aF0.029999999999999999
aF0.96999999999999997
aF-0.16
aI1712
aI-6402
aI-10713
aF171.12
aF-193.19999999999999
aF259.44
aa(lp103
g3
ag4
aI0
aF12.467833995819092
aF-0.059999999999999998
aF0.85999999999999999
aF-0.20000000000000001
aI-369
aI-3018
aI-5861
aF256.68000000000001
aF-154.56
aF251.16
aa(lp104
g3
ag4
aI0
aF12.585306882858276
aF-0.20999999999999999
aF0.84999999999999998
aF-0.22
aI584
aI3374
aI4500
aF261.27999999999997
aF-148.12
aF254.84
aa(lp105
g3
ag4
aI0
aF12.744019985198975
aF-0.17999999999999999
aF0.89000000000000001
aF-0.23000000000000001
aI-1567
aI2071
aI10211
aF205.16
aF-175.72
aF259.44
aa(lp106
g3
ag4
aI0
aF12.851434946060181
aF0.02
aF0.94999999999999996
aF-0.26000000000000001
aI-2639
aI3577
aI20438
aF90.159999999999997
aF-218.03999999999999
aF253.91999999999999
aa(lp107
g3
ag4
aI0
aF12.965481996536255
aF0.25
aF1.05
aF-0.22
aI-4694
aI8420
aI24384
aF-98.439999999999998
aF-209.75999999999999
aF220.80000000000001
aa(lp108
g3
ag4
aI0
aF13.111610889434814
aF0.53000000000000003
aF0.96999999999999997
aF-0.080000000000000002
aI-6509
aI8350
aI23358
aF-277.83999999999997
aF-116.84
aF148.12
aa(lp109
g3
ag4
aI0
aF13.243916988372803
aF0.85999999999999999
aF0.63
aF0.13
aI-9980
aI6706
aI20851
aF-380.88
aF28.52
aF67.159999999999997
aa(lp110
g3
ag4
aI0
aF13.343852043151855
aF0.83999999999999997
aF0.41999999999999998
aF0.19
aI-8196
aI-5070
aI16197
aF-398.36000000000001
aF110.40000000000001
aF64.400000000000006
aa(lp111
g3
ag4
aI0
aF13.463978052139282
aF0.76000000000000001
aF0.13
aF0.089999999999999997
aI-208
aI-4386
aI-1214
aF-393.75999999999999
aF201.47999999999999
aF76.359999999999999
aa(lp112
g3
ag4
aI0
aF13.585242033004761
aF0.80000000000000004
aF0.02
aF0.050000000000000003
aI5212
aI1161
aI-12152
aF-15301.440000000001
aF296.24000000000001
aF-20961.279999999999
aa(lp113
g3
ag4
aI0
aF13.743869066238403
aF0.88
aF0.13
aF0.029999999999999999
aI6695
aI-3650
aI-16728
aF-367.07999999999998
aF75.439999999999998
aF122.36
aa(lp114
g3
ag4
aI0
aF13.843878030776978
aF0.75
aF0.54000000000000004
aF0.040000000000000001
aI6039
aI-7328
aI-19387
aF-307.27999999999997
aF-40.479999999999997
aF159.16
aa(lp115
g3
ag4
aI0
aF13.957762956619263
aF0.68999999999999995
aF0.75
aF-0.080000000000000002
aI4699
aI-8164
aI-22814
aF-188.59999999999999
aF-141.68000000000001
aF219.88
aa(lp116
g3
ag4
aI0
aF14.096702098846436
aF0.46000000000000002
aF0.93999999999999995
aF-0.16
aI2140
aI-4382
aI-22570
aF-12.880000000000001
aF-198.72
aF262.19999999999999
aa(lp117
g3
ag4
aI0
aF14.243911027908325
aF0.17000000000000001
aF1.04
aF-0.23000000000000001
aI1204
aI-4666
aI-18546
aF145.36000000000001
aF-188.59999999999999
aF269.56
aa(lp118
g3
ag4
aI0
aF14.347814083099365
aF0.080000000000000002
aF0.87
aF-0.27000000000000002
aI428
aI-6632
aI-7323
aF275.07999999999998
aF-138
aF254.84
aa(lp119
g3
ag4
aI0
aF14.47384786605835
aF-0.070000000000000007
aF0.81999999999999995
aF-0.23999999999999999
aI901
aI7003
aI9093
aF275.07999999999998
aF-130.63999999999999
aF257.60000000000002
aa(lp120
g3
ag4
aI0
aF14.643950939178467
aF-0.029999999999999999
aF0.89000000000000001
aF-0.23999999999999999
aI-2656
aI4426
aI16960
aF166.52000000000001
aF-184
aF267.72000000000003
aa(lp121
g3
ag4
aI0
aF14.743936061859131
aF0.089999999999999997
aF1
aF-0.26000000000000001
aI-3864
aI4086
aI20002
aF19.32
aF-216.19999999999999
aF253
aa(lp122
g3
ag4
aI0
aF14.854062080383301
aF0.33000000000000002
aF1
aF-0.20000000000000001
aI-5781
aI7192
aI20649
aF-148.12
aF-189.52000000000001
aF207.91999999999999
aa(lp123
g3
ag4
aI0
aF14.986768007278442
aF0.64000000000000001
aF0.85999999999999999
aF-0.050000000000000003
aI-8127
aI9322
aI18634
aF-297.16000000000003
aF-106.72
aF126.95999999999999
aa(lp124
g3
ag4
aI0
aF15.143877029418945
aF0.85999999999999999
aF0.70999999999999996
aF0.11
aI-8066
aI3740
aI16659
aF-345.92000000000002
aF-53.359999999999999
aF83.719999999999999
aa(lp125
g3
ag4
aI0
aF15.243198871612549
aF0.93000000000000005
aF0.47999999999999998
aF0.22
aI-7563
aI-3745
aI14860
aF-396.51999999999998
aF69
aF40.479999999999997
aa(lp126
g3
ag4
aI0
aF15.343762874603271
aF0.88
aF0.16
aF0.17000000000000001
aI-2034
aI370
aI4404
aF-402.04000000000002
aF169.28
aF56.119999999999997
aa(lp127
g3
ag4
aI0
aF15.470525979995728
aF0.79000000000000004
aF-0.01
aF0.13
aI3860
aI-2350
aI-8232
aF-394.68000000000001
aF174.80000000000001
aF69.920000000000002
aa(lp128
g3
ag4
aI0
aF15.643770933151245
aF0.93999999999999995
aF0.02
aF0.089999999999999997
aI6414
aI2040
aI-14485
aF-389.16000000000003
aF96.599999999999994
aF86.480000000000004
aa(lp129
g3
ag4
aI0
aF15.743880033493042
aF0.92000000000000004
aF0.40000000000000002
aF0.080000000000000002
aI9548
aI-3012
aI-18661
aF-354.19999999999999
aF-23
aF105.8
aa(lp130
g3
ag4
aI0
aF15.84281587600708
aF0.90000000000000002
aF0.57999999999999996
aF0.059999999999999998
aI7556
aI-3808
aI-17953
aF-264.95999999999998
aF-126.04000000000001
aF153.63999999999999
aa(lp131
g3
ag4
aI0
aF15.957958936691284
aF0.73999999999999999
aF0.81000000000000005
aF-0.059999999999999998
aI5542
aI-4620
aI-18040
aF-140.75999999999999
aF-190.44
aF218.03999999999999
aa(lp132
g3
ag4
aI0
aF16.086593866348267
aF0.5
aF0.92000000000000004
aF-0.16
aI3814
aI-4527
aI-17083
aF4.5999999999999996
aF-211.59999999999999
aF255.75999999999999
aa(lp133
g3
ag4
aI0
aF16.242887020111084
aF0.20000000000000001
aF0.95999999999999996
aF-0.20000000000000001
aI2421
aI-5818
aI-14066
aF133.40000000000001
aF-190.44
aF273.24000000000001
aa(lp134
g3
ag4
aI0
aF16.343780994415283
aF0.01
aF0.89000000000000001
aF-0.26000000000000001
aI1681
aI-5003
aI-10294
aF232.75999999999999
aF-147.19999999999999
aF269.56
aa(lp135
g3
ag4
aI0
aF16.465261936187744
aF-0.16
aF0.81999999999999995
aF-0.26000000000000001
aI782
aI72
aI-225
aF267.72000000000003
aF-121.44
aF268.63999999999999
aa(lp136
g3
ag4
aI0
aF16.590296983718872
aF-0.26000000000000001
aF0.79000000000000004
aF-0.26000000000000001
aI-451
aI3972
aI4369
aF258.51999999999998
aF-120.52
aF270.48000000000002
aa(lp137
g3
ag4
aI0
aF16.74388599395752
aF-0.16
aF0.83999999999999997
aF-0.28000000000000003
aI-2127
aI2795
aI12057
aF211.59999999999999
aF-145.36000000000001
aF279.68000000000001
aa(lp138
g3
ag4
aI0
aF16.855182886123657
aF0.040000000000000001
aF0.93999999999999995
aF-0.29999999999999999
aI-5180
aI5702
aI19252
aF115
aF-194.12
aF272.31999999999999
aa(lp139
g3
ag4
aI0
aF16.977971076965332
aF0.23000000000000001
aF1.02
aF-0.26000000000000001
aI-6538
aI5388
aI21680
aF-40.479999999999997
aF-217.12
aF237.36000000000001
aa(lp140
g3
ag4
aI0
aF17.143805027008057
aF0.5
aF0.98999999999999999
aF-0.14999999999999999
aI-7656
aI7574
aI20491
aF-215.28
aF-170.19999999999999
aF170.19999999999999
aa(lp141
g3
ag4
aI0
aF17.243124961853027
aF0.70999999999999996
aF0.78000000000000003
aF-0.040000000000000001
aI-7593
aI4623
aI17173
aF-337.63999999999999
aF-65.319999999999993
aF98.439999999999998
aa(lp142
g3
ag4
aI0
aF17.355323076248169
aF0.82999999999999996
aF0.47999999999999998
aF0.13
aI-7224
aI-303
aI13154
aF-393.75999999999999
aF53.359999999999999
aF43.240000000000002
aa(lp143
g3
ag4
aI0
aF17.47522497177124
aF0.83999999999999997
aF0.22
aF0.17000000000000001
aI-6332
aI-986
aI10436
aF-398.36000000000001
aF153.63999999999999
aF60.719999999999999
aa(lp144
g3
ag4
aI0
aF17.643740892410278
aF0.78000000000000003
aF0.01
aF0.11
aI535
aI-2746
aI-1443
aF-400.19999999999999
aF191.36000000000001
aF57.039999999999999
aa(lp145
g3
ag4
aI0
aF17.743818044662476
aF0.87
aF0
aF0.10000000000000001
aI4608
aI1488
aI-10996
aF-391
aF134.31999999999999
aF85.560000000000002
aa(lp146
g3
ag4
aI0
aF17.843842029571533
aF0.94999999999999996
aF0.17999999999999999
aF0.089999999999999997
aI6357
aI-278
aI-14866
aF-373.51999999999998
aF34.960000000000001
aF102.12
aa(lp147
g3
ag4
aI0
aF17.943583965301514
aF0.93999999999999995
aF0.48999999999999999
aF0.070000000000000007
aI7317
aI-2244
aI-17060
aF-345.92000000000002
aF-28.52
aF114.08
aa(lp148
g3
ag4
aI0
aF18.065392971038818
aF0.81000000000000005
aF0.78000000000000003
aF0.029999999999999999
aI6659
aI-5439
aI-19348
aF-265.88
aF-131.56
aF155.47999999999999
aa(lp149
g3
ag4
aI0
aF18.221577882766724
aF0.62
aF0.89000000000000001
aF-0.089999999999999997
aI3944
aI-9651
aI-18790
aF-116.84
aF-201.47999999999999
aF217.12
aa(lp150
g3
ag4
aI0
aF18.34279203414917
aF0.35999999999999999
aF0.97999999999999998
aF-0.17999999999999999
aI2337
aI-2621
aI-16748
aF43.240000000000002
aF-217.12
aF250.24000000000001
aa(lp151
g3
ag4
aI0
aF18.451793909072876
aF0.10000000000000001
aF0.97999999999999998
aF-0.22
aI2276
aI-4120
aI-13315
aF165.59999999999999
aF-192.28
aF264.95999999999998
aa(lp152
g3
ag4
aI0
aF18.579063892364502
aF-0.059999999999999998
aF0.85999999999999999
aF-0.23000000000000001
aI-211
aI-3221
aI-7143
aF256.68000000000001
aF-143.52000000000001
aF262.19999999999999
aa(lp153
g3
ag4
aI0
aF18.743421077728271
aF-0.16
aF0.81000000000000005
aF-0.20999999999999999
aI838
aI1091
aI5248
aF285.19999999999999
aF-127.88
aF251.16
aa(lp154
g3
ag4
aI0
aF18.843749046325684
aF-0.17999999999999999
aF0.81999999999999995
aF-0.20999999999999999
aI-354
aI1339
aI12746
aF251.16
aF-159.16
aF253
aa(lp155
g3
ag4
aI0
aF18.946851015090942
aF-0.059999999999999998
aF0.94999999999999996
aF-0.17999999999999999
aI-3509
aI4767
aI17449
aF135.24000000000001
aF-207.91999999999999
aF259.44
aa(lp156
g3
ag4
aI0
aF19.085207939147949
aF0.080000000000000002
aF1.02
aF-0.17999999999999999
aI-4057
aI8286
aI17581
aF-18.399999999999999
aF-230
aF236.44
aa(lp157
g3
ag4
aI0
aF19.24376106262207
aF0.39000000000000001
aF0.97999999999999998
aF-0.089999999999999997
aI-6424
aI7202
aI15496
aF-182.16
aF-197.80000000000001
aF171.12
aa(lp158
g3
ag4
aI0
aF19.342854976654053
aF0.64000000000000001
aF0.91000000000000003
aF-0
aI-7491
aI4226
aI14642
aF-293.48000000000002
aF-136.16
aF104.88
aa(lp159
g3
ag4
aI0
aF19.45036792755127
aF0.81999999999999995
aF0.72999999999999998
aF0.11
aI-6834
aI-304
aI13841
aF-357.88
aF-44.159999999999997
aF60.719999999999999
aa(lp160
g3
ag4
aI0
aF19.591799974441528
aF0.92000000000000004
aF0.41999999999999998
aF0.20999999999999999
aI-6831
aI2167
aI12809
aF-392.83999999999997
aF60.719999999999999
aF46.920000000000002
aa(lp161
g3
ag4
aI0
aF19.743865013122559
aF0.91000000000000003
aF0.20000000000000001
aF0.23999999999999999
aI-6470
aI-2365
aI10775
aF-400.19999999999999
aF109.48
aF42.32
aa(lp162
g3
ag4
aI0
aF19.843649864196777
aF0.84999999999999998
aF-0.029999999999999999
aF0.17000000000000001
aI-281
aI-333
aI215
aF-403.88
aF180.31999999999999
aF48.759999999999998
aa(lp163
g3
ag4
aI0
aF19.949075937271118
aF0.83999999999999997
aF-0.050000000000000003
aF0.14999999999999999
aI3836
aI64
aI-8283
aF-395.60000000000002
aF163.75999999999999
aF71.760000000000005
aa(lp164
g3
ag4
aI0
aF20.062716007232666
aF0.82999999999999996
aF0.089999999999999997
aF0.19
aI7013
aI-264
aI-13544
aF-391
aF88.319999999999993
aF69.920000000000002
aa(lp165
g3
ag4
aI0
aF20.186593055725098
aF0.95999999999999996
aF0.26000000000000001
aF0.16
aI6659
aI1962
aI-15654
aF-362.48000000000002
aF-27.600000000000001
aF73.599999999999994
aa(lp166
g3
ag4
aI0
aF20.342658042907715
aF0.93999999999999995
aF0.60999999999999999
aF0.13
aI8774
aI-841
aI-17253
aF-299.92000000000002
aF-133.40000000000001
aF93.840000000000003
aa(lp167
g3
ag4
aI0
aF20.442790985107422
aF0.73999999999999999
aF0.76000000000000001
aF0.089999999999999997
aI7535
aI-6767
aI-17395
aF-181.24000000000001
aF-210.68000000000001
aF161
aa(lp168
g3
ag4
aI0
aF20.556582927703857
aF0.53000000000000003
aF0.92000000000000004
aF-0.040000000000000001
aI6037
aI-3634
aI-16386
aF-48.759999999999998
aF-238.28
aF216.19999999999999
aa(lp169
g3
ag4
aI0
aF20.703038930892944
aF0.28000000000000003
aF0.96999999999999997
aF-0.080000000000000002
aI3609
aI-7280
aI-15557
aF97.519999999999996
aF-227.24000000000001
aF249.31999999999999
aa(lp170
g3
ag4
aI0
aF20.84375786781311
aF0.040000000000000001
aF0.93000000000000005
aF-0.17999999999999999
aI924
aI-3500
aI-11353
aF2037.8
aF15722.799999999999
aF0.92000000000000004
aa(lp171
g3
ag4
aI0
aF20.942893028259277
aF-0.01
aF0.84999999999999998
aF-0.17999999999999999
aI-397
aI1896
aI860
aF253.91999999999999
aF-162.84
aF251.16
aa(lp172
g3
ag4
aI0
aF21.060366868972778
aF0.01
aF0.89000000000000001
aF-0.20000000000000001
aI-2708
aI2985
aI16008
aF217.12
aF-179.40000000000001
aF255.75999999999999
aa(lp173
g3
ag4
aI0
aF21.204243898391724
aF0.02
aF1.01
aF-0.17999999999999999
aI-4500
aI3486
aI18278
aF101.2
aF-229.08000000000001
aF243.80000000000001
aa(lp174
g3
ag4
aI0
aF21.343301057815552
aF0.22
aF1.04
aF-0.14000000000000001
aI-5594
aI5354
aI17339
aF-44.159999999999997
aF-241.96000000000001
aF213.44
aa(lp175
g3
ag4
aI0
aF21.4615318775177
aF0.51000000000000001
aF0.98999999999999999
aF-0.040000000000000001
aI-6650
aI3650
aI17775
aF-184
aF-208.84
aF165.59999999999999
aa(lp176
g3
ag4
aI0
aF21.580409049987793
aF0.72999999999999998
aF0.79000000000000004
aF0.10000000000000001
aI-7902
aI5637
aI16172
aF-297.16000000000003
aF-127.88
aF104.88
aa(lp177
g3
ag4
aI0
aF21.743757009506226
aF0.87
aF0.56999999999999995
aF0.19
aI-7300
aI1814
aI15801
aF-374.44
aF-11.960000000000001
aF49.68
aa(lp178
g3
ag4
aI0
aF21.843672037124634
aF0.94999999999999996
aF0.28000000000000003
aF0.28000000000000003
aI-7896
aI168
aI12170
aF-410.31999999999999
aF102.12
aF23
aa(lp179
g3
ag4
aI0
aF21.942210912704468
aF0.89000000000000001
aF0.070000000000000007
aF0.19
aI-765
aI-3393
aI1693
aF-408.48000000000002
aF177.56
aF28.52
aa(lp180
g3
ag4
aI0
aF22.064027070999146
aF0.80000000000000004
aF0.02
aF0.19
aI4418
aI-2446
aI-7510
aF-402.04000000000002
aF152.72
aF51.520000000000003
aa(lp181
g3
ag4
aI0
aF22.177700996398926
aF0.93999999999999995
aF0.02
aF0.19
aI6438
aI1508
aI-13849
aF-391.92000000000002
aF61.640000000000001
aF57.039999999999999
aa(lp182
g3
ag4
aI0
aF22.343749046325684
aF0.90000000000000002
aF0.33000000000000002
aF0.14000000000000001
aI7148
aI-2431
aI-14658
aF-345.92000000000002
aF-54.280000000000001
aF88.319999999999993
aa(lp183
g3
ag4
aI0
aF22.443172931671143
aF0.81999999999999995
aF0.64000000000000001
aF0.12
aI7781
aI-4063
aI-16992
aF-315.56
aF-108.56
aF98.439999999999998
aa(lp184
g3
ag4
aI0
aF22.549027919769287
aF0.68000000000000005
aF0.80000000000000004
aF0.059999999999999998
aI6140
aI-6447
aI-16578
aF-212.52000000000001
aF-183.08000000000001
aF161.91999999999999
aa(lp185
g3
ag4
aI0
aF22.696743011474609
aF0.51000000000000001
aF0.90000000000000002
aF-0.050000000000000003
aI4857
aI-3700
aI-15885
aF-80.959999999999994
aF-229.08000000000001
aF214.36000000000001
aa(lp186
g3
ag4
aI0
aF22.843493938446045
aF0.27000000000000002
aF0.97999999999999998
aF-0.12
aI2446
aI-4301
aI-13769
aF46
aF-222.63999999999999
aF247.47999999999999
aa(lp187
g3
ag4
aI0
aF22.943706035614014
aF0.040000000000000001
aF0.93999999999999995
aF-0.19
aI1803
aI-4120
aI-12794
aF161.91999999999999
aF-199.63999999999999
aF260.36000000000001
aa(lp188
g3
ag4
aI0
aF23.06656289100647
aF-0.089999999999999997
aF0.85999999999999999
aF-0.23999999999999999
aI167
aI-2546
aI-6387
aF253.91999999999999
aF-153.63999999999999
aF253
aa(lp189
g3
ag4
aI0
aF23.188975095748901
aF-0.20999999999999999
aF0.81999999999999995
aF-0.23000000000000001
aI611
aI3210
aI4541
aF274.16000000000003
aF-138.91999999999999
aF254.84
aa(lp190
g3
ag4
aI0
aF23.342427015304565
aF-0.20000000000000001
aF0.83999999999999997
aF-0.20999999999999999
aI-1154
aI1372
aI8513
aF217.12
aF-163.75999999999999
aF263.12
aa(lp191
g3
ag4
aI0
aF23.442924976348877
aF-0.080000000000000002
aF0.90000000000000002
aF-0.23999999999999999
aI-1519
aI1977
aI13043
aF145.36000000000001
aF-202.40000000000001
aF258.51999999999998
aa(lp192
g3
ag4
aI0
aF23.564220905303955
aF0.080000000000000002
aF0.98999999999999999
aF-0.23000000000000001
aI-3781
aI3684
aI16840
aF32.200000000000003
aF-229.08000000000001
aF241.96000000000001
aa(lp193
g3
ag4
aI0
aF23.683628082275391
aF0.33000000000000002
aF0.98999999999999999
aF-0.16
aI-5683
aI5523
aI19932
aF-116.84
aF-215.28
aF200.56
aa(lp194
g3
ag4
aI0
aF23.843837976455688
aF0.53000000000000003
aF0.91000000000000003
aF-0.080000000000000002
aI-6833
aI6357
aI18401
aF-267.72000000000003
aF-144.44
aF138
aa(lp195
g3
ag4
aI0
aF23.945288896560669
aF0.71999999999999997
aF0.68999999999999995
aF0.080000000000000002
aI-6802
aI3931
aI13976
aF-356.04000000000002
aF-46.920000000000002
aF71.760000000000005
aa(lp196
g3
ag4
aI0
aF24.065547943115234
aF0.85999999999999999
aF0.47999999999999998
aF0.22
aI-7778
aI241
aI13958
aF-396.51999999999998
aF63.479999999999997
aF40.479999999999997
aa(lp197
g3
ag4
aI0
aF24.179200887680054
aF0.89000000000000001
aF0.20000000000000001
aF0.20999999999999999
aI-5972
aI-2061
aI9778
aF-404.80000000000001
aF111.31999999999999
aF38.640000000000001
aa(lp198
g3
ag4
aI0
aF24.343595027923584
aF0.78000000000000003
aF0.029999999999999999
aF0.14999999999999999
aI-42
aI-2586
aI1631
aF-400.19999999999999
aF174.80000000000001
aF56.119999999999997
aa(lp199
g3
ag4
aI0
aF24.443582057952881
aF0.80000000000000004
aF-0.02
aF0.14999999999999999
aI3941
aI-1743
aI-6978
aF-393.75999999999999
aF172.03999999999999
aF67.159999999999997
aa(lp200
g3
ag4
aI0
aF24.555590867996216
aF0.91000000000000003
aF0.02
aF0.12
aI5252
aI4611
aI-12958
aF-390.07999999999998
aF102.12
aF81.879999999999995
aa(lp201
g3
ag4
aI0
aF24.667841911315918
aF0.93999999999999995
aF0.27000000000000002
aF0.17999999999999999
aI8189
aI-1227
aI-16534
aF-367.07999999999998
aF-9.1999999999999993
aF82.799999999999997
aa(lp202
g3
ag4
aI0
aF24.843626976013184
aF0.91000000000000003
aF0.45000000000000001
aF0.17999999999999999
aI6839
aI-4083
aI-16961
aF-300.83999999999997
aF-118.68000000000001
aF119.59999999999999
aa(lp203
g3
ag4
aI0
aF24.943656921386719
aF0.78000000000000003
aF0.68999999999999995
aF0.059999999999999998
aI5774
aI-6563
aI-18242
aF-178.47999999999999
aF-195.96000000000001
aF177.56
aa(lp204
g3
ag4
aI0
aF25.0465989112854
aF0.47999999999999998
aF0.89000000000000001
aF-0.070000000000000007
aI3351
aI-7647
aI-19664
aF-5.5199999999999996
aF-239.19999999999999
aF230
aa.