(lp0
(lp1
S'Sandra'
p2
aS'bicep curls'
p3
aI0
aF0.00024080276489257812
aF0.19
aF-1.04
aF-0.14
aI-1
aI252
aI195
aF-206.08
aF540.96
aF74.52
aa(lp4
g2
ag3
aI0
aF0.2299489974975586
aF0.19
aF-1.03
aF-0.15
aI-9
aI-59
aI137
aF-206.08
aF543.72
aF74.52
aa(lp5
g2
ag3
aI0
aF0.34638381004333496
aF0.19
aF-1.03
aF-0.15
aI34
aI-206
aI13
aF-204.24
aF542.8
aF77.28
aa(lp6
g2
ag3
aI0
aF0.4551107883453369
aF0.18
aF-1.03
aF-0.15
aI171
aI-367
aI-67
aF-207.0
aF541.88
aF75.44
aa(lp7
g2
ag3
aI0
aF0.5725669860839844
aF0.18
aF-1.03
aF-0.15
aI-116
aI91
aI-311
aF-204.24
aF538.2
aF73.6
aa(lp8
g2
ag3
aI0
aF0.7317709922790527
aF0.21
aF-1.03
aF-0.15
aI-237
aI243
aI-438
aF-206.08
aF536.36
aF74.52
aa(lp9
g2
ag3
aI0
aF0.8312168121337891
aF0.24
aF-1.02
aF-0.17
aI-885
aI1941
aI-2599
aF-219.88
aF528.08
aF71.76
aa(lp10
g2
ag3
aI0
aF0.9562368392944336
aF0.32
aF-1.02
aF-0.17
aI-1878
aI3749
aI-7807
aF-257.6
aF495.88
aF65.32
aa(lp11
g2
ag3
aI0
aF1.091073989868164
aF0.51
aF-1.01
aF-0.15
aI-1757
aI6271
aI-14859
aF-327.52
aF413.08
aF34.96
aa(lp12
g2
ag3
aI0
aF1.2317759990692139
aF0.78
aF-0.9
aF-0.14
aI-1167
aI5022
aI-23937
aF-392.84
aF241.04
aF-7.36
aa(lp13
g2
ag3
aI0
aF1.3314218521118164
aF0.95
aF-0.59
aF-0.1
aI1470
aI2022
aI-27290
aF-370.76
aF-13.8
aF-47.84
aa(lp14
g2
ag3
aI0
aF1.4726409912109375
aF0.96
aF-0.22
aF-0.08
aI1203
aI-1271
aI-25132
aF-235.52
aF-231.84
aF-54.28
aa(lp15
g2
ag3
aI0
aF1.6317667961120605
aF0.85
aF0.12
aF-0.05
aI571
aI-1352
aI-19544
aF-20961.28
aF-14602.24
aF296.24
aa(lp16
g2
ag3
aI0
aF1.7307698726654053
aF0.66
aF0.43
aF-0.03
aI161
aI-1691
aI-14260
aF88.32
aF-363.4
aF-35.88
aa(lp17
g2
ag3
aI0
aF1.8500440120697021
aF0.45
aF0.66
aF-0.04
aI-215
aI-2375
aI-10322
aF196.88
aF-343.16
aF-34.04
aa(lp18
g2
ag3
aI0
aF1.9760699272155762
aF0.24
aF0.76
aF-0.07
aI585
aI-2594
aI176
aF245.64
aF-328.44
aF-42.32
aa(lp19
g2
ag3
aI0
aF2.131765842437744
aF0.18
aF0.79
aF-0.05
aI972
aI-205
aI13479
aF218.96
aF-340.4
aF-47.84
aa(lp20
g2
ag3
aI0
aF2.231642007827759
aF0.3
aF0.74
aF-0.04
aI2012
aI1547
aI22792
aF87.4
aF-366.16
aF-42.32
aa(lp21
g2
ag3
aI0
aF2.370015859603882
aF0.61
aF0.47
aF-0.12
aI4174
aI3044
aI26805
aF-119.6
aF-312.8
aF-25.76
aa(lp22
g2
ag3
aI0
aF2.5317440032958984
aF0.86
aF0.14
aF-0.13
aI3175
aI1268
aI26987
aF-305.44
aF-133.4
aF-1.84
aa(lp23
g2
ag3
aI0
aF2.631635904312134
aF0.88
aF-0.29
aF-0.19
aI1821
aI-4061
aI27017
aF-386.4
aF112.24
aF23.92
aa(lp24
g2
ag3
aI0
aF2.731642007827759
aF0.76
aF-0.78
aF-0.16
aI1368
aI2512
aI28414
aF-345.92
aF371.68
aF41.4
aa(lp25
g2
ag3
aI0
aF2.8325209617614746
aF0.62
aF-0.93
aF-0.19
aI1197
aI4162
aI10412
aF-238.28
aF526.24
aF25.76
aa(lp26
g2
ag3
aI0
aF2.9487199783325195
aF0.56
aF-0.97
aF-0.19
aI-333
aI-981
aI2045
aF-190.44
aF566.72
aF19.32
aa(lp27
g2
ag3
aI0
aF3.096204996109009
aF0.57
aF-1.03
aF-0.18
aI-402
aI-1619
aI-14480
aF-233.68
aF532.68
aF25.76
aa(lp28
g2
ag3
aI0
aF3.229995012283325
aF0.71
aF-1.11
aF-0.17
aI-1641
aI1360
aI-27855
aF-350.52
aF369.84
aF22.08
aa(lp29
g2
ag3
aI0
aF3.3358848094940186
aF0.88
aF-0.85
aF-0.12
aI-438
aI4126
aI-32736
aF296.24
aF2133.48
aF-14602.24
aa(lp30
g2
ag3
aI0
aF3.4759438037872314
aF0.93
aF-0.44
aF-0.04
aI2022
aI2391
aI-30687
aF-247.48
aF-219.88
aF-37.72
aa(lp31
g2
ag3
aI0
aF3.6308369636535645
aF0.78
aF0.01
aF-0.03
aI1397
aI-1360
aI-24985
aF-34.04
aF-345.0
aF-30.36
aa(lp32
g2
ag3
aI0
aF3.7308077812194824
aF0.56
aF0.36
aF-0.04
aI1008
aI-3111
aI-17871
aF63.48
aF-358.8
aF-20.24
aa(lp33
g2
ag3
aI0
aF3.84389591217041
aF0.3
aF0.61
aF-0.08
aI224
aI-1474
aI-9447
aF210.68
aF-332.12
aF-11.96
aa(lp34
g2
ag3
aI0
aF3.961310863494873
aF0.09
aF0.74
aF-0.12
aI-1686
aI-1498
aI942
aF278.76
aF-306.36
aF-14.72
aa(lp35
g2
ag3
aI0
aF4.099023818969727
aF0.11
aF0.78
aF-0.09
aI186
aI-153
aI13670
aF247.48
aF-322.92
aF-24.84
aa(lp36
g2
ag3
aI0
aF4.231231927871704
aF0.29
aF0.73
aF-0.1
aI1430
aI84
aI23592
aF106.72
aF-357.88
aF-31.28
aa(lp37
g2
ag3
aI0
aF4.335052967071533
aF0.56
aF0.52
aF-0.12
aI2090
aI460
aI28053
aF-109.48
aF-312.8
aF-23.92
aa(lp38
g2
ag3
aI0
aF4.451412916183472
aF0.87
aF0.14
aF-0.14
aI2802
aI1721
aI28791
aF-311.88
aF-131.56
aF-11.96
aa(lp39
g2
ag3
aI0
aF4.579017877578735
aF0.92
aF-0.29
aF-0.06
aI-243
aI2030
aI27097
aF-390.08
aF126.04
aF11.04
aa(lp40
g2
ag3
aI0
aF4.731674909591675
aF0.92
aF-0.69
aF-0.13
aI231
aI-1544
aI23737
aF-356.04
aF358.8
aF20.24
aa(lp41
g2
ag3
aI0
aF4.832758903503418
aF0.61
aF-0.92
aF-0.15
aI923
aI-1936
aI15420
aF-245.64
aF516.12
aF34.96
aa(lp42
g2
ag3
aI0
aF4.94406795501709
aF0.56
aF-0.98
aF-0.18
aI487
aI-1163
aI3232
aF-198.72
aF557.52
aF31.28
aa(lp43
g2
ag3
aI0
aF5.096428871154785
aF0.57
aF-1.02
aF-0.19
aI-609
aI-1023
aI-9688
aF-199.64
aF554.76
aF34.04
aa(lp44
g2
ag3
aI0
aF5.231665849685669
aF0.64
aF-1.05
aF-0.15
aI-2343
aI1663
aI-21499
aF-274.16
aF485.76
aF36.8
aa(lp45
g2
ag3
aI0
aF5.338927984237671
aF0.81
aF-0.95
aF-0.16
aI-1716
aI1891
aI-26639
aF-374.44
aF299.0
aF23.0
aa(lp46
g2
ag3
aI0
aF5.459969997406006
aF0.91
aF-0.65
aF-0.13
aI-1272
aI382
aI-25858
aF-381.8
aF40.48
aF2.76
aa(lp47
g2
ag3
aI0
aF5.602672815322876
aF0.92
aF-0.26
aF-0.12
aI-450
aI1554
aI-23646
aF-276.92
aF-181.24
aF-7.36
aa(lp48
g2
ag3
aI0
aF5.731750011444092
aF0.83
aF0.1
aF-0.12
aI-1014
aI-1602
aI-19602
aF-112.24
aF-312.8
aF-19.32
aa(lp49
g2
ag3
aI0
aF5.851471900939941
aF0.67
aF0.4
aF-0.13
aI-395
aI-3394
aI-15001
aF45.08
aF-360.64
aF-19.32
aa(lp50
g2
ag3
aI0
aF5.980242967605591
aF0.42
aF0.63
aF-0.13
aI-1954
aI-3029
aI-10999
aF170.2
aF-353.28
aF-26.68
aa(lp51
g2
ag3
aI0
aF6.131370782852173
aF0.23
aF0.77
aF-0.1
aI-821
aI-329
aI-4566
aF248.4
aF-329.36
aF-42.32
aa(lp52
g2
ag3
aI0
aF6.231626987457275
aF0.14
aF0.83
aF-0.09
aI670
aI731
aI6235
aF253.92
aF-326.6
aF-46.0
aa(lp53
g2
ag3
aI0
aF6.331501007080078
aF0.18
aF0.83
aF-0.1
aI1307
aI1363
aI15525
aF164.68
aF-354.2
aF-40.48
aa(lp54
g2
ag3
aI0
aF6.443866968154907
aF0.38
aF0.7
aF-0.11
aI3164
aI2219
aI22897
aF-5.52
aF-351.44
aF-26.68
aa(lp55
g2
ag3
aI0
aF6.591246843338013
aF0.7
aF0.47
aF-0.13
aI1331
aI-1567
aI26013
aF-212.52
aF-244.72
aF-11.04
aa(lp56
g2
ag3
aI0
aF6.731588840484619
aF0.89
aF0.04
aF-0.22
aI3976
aI659
aI26185
aF-352.36
aF-37.72
aF14.72
aa(lp57
g2
ag3
aI0
aF6.847757816314697
aF0.94
aF-0.32
aF-0.15
aI2313
aI414
aI24466
aF-383.64
aF87.4
aF21.16
aa(lp58
g2
ag3
aI0
aF6.932395935058594
aF0.92
aF-0.66
aF-0.17
aI1968
aI1488
aI21534
aF-368.0
aF310.04
aF40.48
aa(lp59
g2
ag3
aI0
aF7.073745965957642
aF0.64
aF-0.94
aF-0.17
aI1111
aI-939
aI16990
aF-275.08
aF485.76
aF40.48
aa(lp60
g2
ag3
aI0
aF7.231534957885742
aF0.57
aF-0.97
aF-0.18
aI551
aI1547
aI5349
aF-203.32
aF556.6
aF37.72
aa(lp61
g2
ag3
aI0
aF7.330838918685913
aF0.49
aF-1.01
aF-0.17
aI-418
aI-1224
aI-4379
aF-187.68
aF566.72
aF35.88
aa(lp62
g2
ag3
aI0
aF7.433971881866455
aF0.55
aF-1.07
aF-0.19
aI-823
aI-269
aI-17761
aF-252.08
aF511.52
aF34.96
aa(lp63
g2
ag3
aI0
aF7.575085878372192
aF0.73
aF-1.07
aF-0.17
aI-1564
aI2075
aI-26220
aF-360.64
aF341.32
aF25.76
aa(lp64
g2
ag3
aI0
aF7.731500864028931
aF0.9
aF-0.79
aF-0.16
aI-545
aI1617
aI-29499
aF-386.4
aF70.84
aF-1.84
aa(lp65
g2
ag3
aI0
aF7.831503868103027
aF1.0
aF-0.41
aF-0.13
aI37
aI486
aI-27438
aF-278.76
aF-184.0
aF-19.32
aa(lp66
g2
ag3
aI0
aF7.940039873123169
aF0.88
aF-0.0
aF-0.07
aI-39
aI-347
aI-22487
aF-90.16
aF-325.68
aF-26.68
aa(lp67
g2
ag3
aI0
aF8.060393810272217
aF0.68
aF0.33
aF-0.08
aI-1478
aI-4752
aI-15392
aF69.0
aF-358.8
aF-20.24
aa(lp68
g2
ag3
aI0
aF8.21377682685852
aF0.47
aF0.61
aF-0.09
aI-1619
aI-3010
aI-9582
aF132.48
aF-356.04
aF-28.52
aa(lp69
g2
ag3
aI0
aF8.337653875350952
aF0.28
aF0.76
aF-0.11
aI-1531
aI-853
aI-3137
aF211.6
aF-341.32
aF-45.08
aa(lp70
g2
ag3
aI0
aF8.451331853866577
aF0.21
aF0.83
aF-0.08
aI439
aI1473
aI7312
aF227.24
aF-335.8
aF-54.28
aa(lp71
g2
ag3
aI0
aF8.572732925415039
aF0.28
aF0.8
aF-0.09
aI1558
aI1671
aI15467
aF149.04
aF-357.88
aF-46.92
aa(lp72
g2
ag3
aI0
aF8.731590986251831
aF0.48
aF0.66
aF-0.11
aI4977
aI2394
aI22250
aF2.76
aF-352.36
aF-32.2
aa(lp73
g2
ag3
aI0
aF8.831413984298706
aF0.67
aF0.49
aF-0.02
aI2643
aI801
aI25577
aF-193.2
aF-260.36
aF-9.2
aa(lp74
g2
ag3
aI0
aF8.938697814941406
aF0.8
aF0.06
aF-0.1
aI2253
aI-2724
aI26075
aF-343.16
aF-60.72
aF19.32
aa(lp75
g2
ag3
aI0
aF9.05502986907959
aF0.88
aF-0.38
aF-0.13
aI2278
aI44
aI24561
aF-389.16
aF181.24
aF44.16
aa(lp76
g2
ag3
aI0
aF9.170148849487305
aF0.79
aF-0.76
aF-0.15
aI617
aI3611
aI24959
aF-328.44
aF398.36
aF47.84
aa(lp77
g2
ag3
aI0
aF9.33053183555603
aF0.55
aF-0.98
aF-0.21
aI1320
aI3468
aI9279
aF-239.2
aF523.48
aF40.48
aa(lp78
g2
ag3
aI0
aF9.43111801147461
aF0.48
aF-1.01
aF-0.21
aI641
aI-1458
aI3813
aF-193.2
aF564.88
aF33.12
aa(lp79
g2
ag3
aI0
aF9.54971694946289
aF0.5
aF-1.03
aF-0.19
aI188
aI-183
aI-8058
aF-195.04
aF561.2
aF30.36
aa(lp80
g2
ag3
aI0
aF9.731639862060547
aF0.58
aF-1.07
aF-0.15
aI-745
aI2252
aI-21765
aF-268.64
aF498.64
aF21.16
aa(lp81
g2
ag3
aI0
aF9.831562995910645
aF0.83
aF-0.98
aF-0.12
aI-400
aI4023
aI-29736
aF-379.04
aF307.28
aF-12.88
aa(lp82
g2
ag3
aI0
aF9.938820838928223
aF0.98
aF-0.67
aF-0.06
aI840
aI3088
aI-30552
aF-380.88
aF17.48
aF-51.52
aa(lp83
g2
ag3
aI0
aF10.067538976669312
aF0.93
aF-0.27
aF-0.01
aI1215
aI-1185
aI-26390
aF-239.2
aF-230.0
aF-57.96
aa(lp84
g2
ag3
aI0
aF10.230121850967407
aF0.78
aF0.14
aF-0.03
aI790
aI-6188
aI-20017
aF-43.24
aF-346.84
aF-39.56
aa(lp85
g2
ag3
aI0
aF10.331462860107422
aF0.51
aF0.46
aF-0.07
aI-533
aI-4829
aI-14196
aF124.2
aF-361.56
aF-27.6
aa(lp86
g2
ag3
aI0
aF10.442533016204834
aF0.27
aF0.67
aF-0.07
aI-1230
aI-718
aI-5640
aF225.4
aF-335.8
aF-40.48
aa(lp87
g2
ag3
aI0
aF10.556337833404541
aF0.17
aF0.77
aF-0.07
aI-140
aI993
aI6464
aF232.76
aF-333.96
aF-46.0
aa(lp88
g2
ag3
aI0
aF10.701499938964844
aF0.21
aF0.77
aF-0.09
aI2844
aI2741
aI18170
aF129.72
aF-358.8
aF-34.96
aa(lp89
g2
ag3
aI0
aF10.831597805023193
aF0.44
aF0.61
aF-0.09
aI3647
aI3093
aI26161
aF-68.08
aF-333.04
aF-17.48
aa(lp90
g2
ag3
aI0
aF10.940329790115356
aF0.6
aF0.4
aF-0.08
aI567
aI-411
aI27917
aF-271.4
aF-180.32
aF-7.36
aa(lp91
g2
ag3
aI0
aF11.058877944946289
aF0.87
aF-0.1
aF-0.15
aI2951
aI-4997
aI26479
aF-340.4
aF-68.08
aF0.92
aa(lp92
g2
ag3
aI0
aF11.171403884887695
aF0.86
aF-0.52
aF-0.21
aI4503
aI-4564
aI25645
aF-379.96
aF195.04
aF57.96
aa(lp93
g2
ag3
aI0
aF11.330380916595459
aF0.58
aF-0.92
aF-0.2
aI3701
aI1283
aI22590
aF-308.2
aF426.88
aF71.76
aa(lp94
g2
ag3
aI0
aF11.43140983581543
aF0.5
aF-0.98
aF-0.2
aI1958
aI3662
aI8393
aF-221.72
aF541.88
aF46.92
aa(lp95
g2
ag3
aI0
aF11.548815965652466
aF0.44
aF-1.02
aF-0.18
aI540
aI1982
aI2244
aF-179.4
aF578.68
aF25.76
aa(lp96
g2
ag3
aI0
aF11.67390489578247
aF0.43
aF-1.05
aF-0.19
aI-382
aI-2210
aI-8586
aF-187.68
aF575.92
aF25.76
aa(lp97
g2
ag3
aI0
aF11.830859899520874
aF0.51
aF-1.1
aF-0.18
aI-2691
aI-1057
aI-20313
aF-271.4
aF498.64
aF35.88
aa(lp98
g2
ag3
aI0
aF11.930607795715332
aF0.69
aF-1.06
aF-0.19
aI-5590
aI3196
aI-28091
aF-369.84
aF299.92
aF34.96
aa(lp99
g2
ag3
aI0
aF12.068508863449097
aF0.85
aF-0.71
aF-0.17
aI-3090
aI2256
aI-29043
aF-372.6
aF11.96
aF-5.52
aa(lp100
g2
ag3
aI0
aF12.231506824493408
aF0.93
aF-0.31
aF-0.11
aI-1132
aI959
aI-25625
aF-248.4
aF-222.64
aF-34.04
aa(lp101
g2
ag3
aI0
aF12.331171989440918
aF0.79
aF0.1
aF-0.08
aI-95
aI860
aI-22095
aF-55.2
aF-343.16
aF-43.24
aa(lp102
g2
ag3
aI0
aF12.43139386177063
aF0.56
aF0.44
aF-0.09
aI-195
aI-3333
aI-16555
aF112.24
aF-357.88
aF-39.56
aa(lp103
g2
ag3
aI0
aF12.54272985458374
aF0.32
aF0.66
aF-0.11
aI-1427
aI-3452
aI-11071
aF230.0
aF-332.12
aF-46.92
aa(lp104
g2
ag3
aI0
aF12.681598901748657
aF0.11
aF0.78
aF-0.07
aI-978
aI-1147
aI-993
aF276.92
aF-310.96
aF-63.48
aa(lp105
g2
ag3
aI0
aF12.830943822860718
aF0.1
aF0.83
aF-0.05
aI2519
aI2390
aI9931
aF264.04
aF-318.32
aF-65.32
aa(lp106
g2
ag3
aI0
aF12.931432008743286
aF0.18
aF0.8
aF-0.07
aI4709
aI3242
aI19691
aF166.52
aF-351.44
aF-40.48
aa(lp107
g2
ag3
aI0
aF13.048717975616455
aF0.44
aF0.61
aF-0.1
aI6930
aI1815
aI27588
aF-23.92
aF-341.32
aF0.0
aa(lp108
g2
ag3
aI0
aF13.165073871612549
aF0.69
aF0.27
aF-0.21
aI4324
aI2887
aI27159
aF-237.36
aF-201.48
aF38.64
aa(lp109
g2
ag3
aI0
aF13.331081867218018
aF0.91
aF-0.19
aF-0.23
aI4570
aI-1609
aI28042
aF-367.08
aF36.8
aF57.04
aa(lp110
g2
ag3
aI0
aF13.430440902709961
aF0.86
aF-0.73
aF-0.24
aI3906
aI3094
aI28770
aF-353.28
aF309.12
aF83.72
aa(lp111
g2
ag3
aI0
aF13.548985958099365
aF0.53
aF-0.99
aF-0.24
aI2132
aI2052
aI15939
aF-237.36
aF507.84
aF76.36
aa(lp112
g2
ag3
aI0
aF13.66525387763977
aF0.48
aF-1.01
aF-0.2
aI1412
aI2765
aI7830
aF-182.16
aF567.64
aF47.84
aa(lp113
g2
ag3
aI0
aF13.830615997314453
aF0.45
aF-1.02
aF-0.18
aI119
aI1110
aI-2430
aF-161.0
aF582.36
aF39.56
aa(lp114
g2
ag3
aI0
aF13.931557893753052
aF0.41
aF-1.06
aF-0.16
aI-750
aI-1926
aI-12913
aF-217.12
aF543.72
aF44.16
aa(lp115
g2
ag3
aI0
aF14.04764199256897
aF0.54
aF-1.11
aF-0.16
aI-2202
aI-429
aI-22260
aF-320.16
aF414.0
aF52.44
aa(lp116
g2
ag3
aI0
aF14.161297798156738
aF0.73
aF-1.0
aF-0.17
aI-3138
aI666
aI-26194
aF-360.64
aF310.96
aF51.52
aa(lp117
g2
ag3
aI0
aF14.331517934799194
aF0.87
aF-0.69
aF-0.16
aI-2770
aI995
aI-25001
aF-375.36
aF58.88
aF40.48
aa(lp118
g2
ag3
aI0
aF14.431556940078735
aF0.88
aF-0.27
aF-0.14
aI-3871
aI-1931
aI-21883
aF-280.6
aF-160.08
aF25.76
aa(lp119
g2
ag3
aI0
aF14.5675528049469
aF0.79
aF0.1
aF-0.14
aI-3439
aI-1173
aI-17865
aF-135.24
aF-297.16
aF4.6
aa(lp120
g2
ag3
aI0
aF14.731452941894531
aF0.66
aF0.4
aF-0.15
aI-2734
aI-1103
aI-12912
aF9.2
aF-354.2
aF-17.48
aa(lp121
g2
ag3
aI0
aF14.831502914428711
aF0.47
aF0.63
aF-0.1
aI-2670
aI-835
aI-8904
aF117.76
aF-360.64
aF-35.88
aa(lp122
g2
ag3
aI0
aF14.93025279045105
aF0.32
aF0.8
aF-0.09
aI56
aI709
aI-4559
aF184.0
aF-346.84
aF-46.92
aa(lp123
g2
ag3
aI0
aF15.03389286994934
aF0.23
aF0.85
aF-0.09
aI880
aI481
aI3997
aF201.48
aF-344.08
aF-40.48
aa(lp124
g2
ag3
aI0
aF15.151394844055176
aF0.26
aF0.85
aF-0.06
aI1472
aI194
aI11959
aF142.6
aF-356.04
aF-35.88
aa(lp125
g2
ag3
aI0
aF15.29521894454956
aF0.4
aF0.75
aF-0.1
aI3306
aI1154
aI18133
aF10.12
aF-351.44
aF-21.16
aa(lp126
g2
ag3
aI0
aF15.43133282661438
aF0.61
aF0.57
aF-0.12
aI2426
aI1005
aI22255
aF-157.32
aF-281.52
aF-2.76
aa(lp127
g2
ag3
aI0
aF15.530710935592651
aF0.85
aF0.21
aF-0.19
aI3857
aI1468
aI22335
aF-306.36
aF-125.12
aF13.8
aa(lp128
g2
ag3
aI0
aF15.647709846496582
aF0.91
aF-0.06
aF-0.15
aI1521
aI-1061
aI22042
aF-353.28
aF-26.68
aF23.92
aa(lp129
g2
ag3
aI0
aF15.778920888900757
aF0.93
aF-0.5
aF-0.18
aI2927
aI-3412
aI20395
aF-381.8
aF180.32
aF48.76
aa(lp130
g2
ag3
aI0
aF15.930208921432495
aF0.74
aF-0.78
aF-0.18
aI2493
aI-415
aI20544
aF-336.72
aF366.16
aF69.92
aa(lp131
g2
ag3
aI0
aF16.047531843185425
aF0.54
aF-0.94
aF-0.22
aI1663
aI2890
aI8585
aF-247.48
aF507.84
aF61.64
aa(lp132
g2
ag3
aI0
aF16.169010877609253
aF0.47
aF-0.98
aF-0.2
aI299
aI-196
aI2237
aF-212.52
aF547.4
aF43.24
aa(lp133
g2
ag3
aI0
aF16.33090090751648
aF0.46
aF-1.01
aF-0.19
aI-434
aI-1250
aI-7720
aF-218.04
aF540.96
aF42.32
aa(lp134
g2
ag3
aI0
aF16.43110179901123
aF0.53
aF-1.04
aF-0.18
aI-917
aI513
aI-16122
aF-281.52
aF469.2
aF47.84
aa(lp135
g2
ag3
aI0
aF16.531415939331055
aF0.73
aF-1.03
aF-0.18
aI-2247
aI1843
aI-23566
aF-368.92
aF314.64
aF34.96
aa(lp136
g2
ag3
aI0
aF16.648775815963745
aF0.83
aF-0.73
aF-0.17
aI-2464
aI835
aI-25866
aF-383.64
aF66.24
aF18.4
aa(lp137
g2
ag3
aI0
aF16.770285844802856
aF0.96
aF-0.38
aF-0.13
aI-2105
aI1116
aI-24625
aF-286.12
aF-161.92
aF-4.6
aa(lp138
g2
ag3
aI0
aF16.930208921432495
aF0.82
aF-0.01
aF-0.12
aI-2181
aI-7142
aI-21126
aF-122.36
aF-306.36
aF-8.28
aa(lp139
g2
ag3
aI0
aF17.042651891708374
aF0.68
aF0.32
aF-0.13
aI-3065
aI-4099
aI-13784
aF31.28
aF-356.96
aF-18.4
aa(lp140
g2
ag3
aI0
aF17.172708988189697
aF0.52
aF0.58
aF-0.14
aI-2983
aI483
aI-9564
aF127.88
aF-361.56
aF-38.64
aa(lp141
g2
ag3
aI0
aF17.330776929855347
aF0.36
aF0.76
aF-0.12
aI-2438
aI1185
aI-6929
aF197.8
aF-345.0
aF-56.12
aa(lp142
g2
ag3
aI0
aF17.43130588531494
aF0.21
aF0.85
aF-0.07
aI-1728
aI-620
aI-887
aF219.88
aF-338.56
aF-66.24
aa(lp143
g2
ag3
aI0
aF17.530699014663696
aF0.18
aF0.88
aF-0.06
aI1596
aI413
aI8054
aF213.44
aF-338.56
aF-72.68
aa(lp144
g2
ag3
aI0
aF17.645144939422607
aF0.26
aF0.87
aF-0.05
aI4277
aI1232
aI14832
aF132.48
aF-359.72
aF-58.88
aa(lp145
g2
ag3
aI0
aF17.77875590324402
aF0.45
aF0.72
aF-0.09
aI6234
aI388
aI19566
aF-7.36
aF-351.44
aF-24.84
aa(lp146
g2
ag3
aI0
aF17.93126893043518
aF0.66
aF0.48
aF-0.17
aI4610
aI1048
aI19679
aF-168.36
aF-267.72
aF17.48
aa(lp147
g2
ag3
aI0
aF18.03133797645569
aF0.83
aF0.19
aF-0.2
aI4298
aI1514
aI21541
aF-301.76
aF-123.28
aF40.48
aa(lp148
g2
ag3
aI0
aF18.14401078224182
aF0.87
aF-0.15
aF-0.18
aI2106
aI-2153
aI21583
aF-376.28
aF74.52
aF51.52
aa(lp149
g2
ag3
aI0
aF18.264023780822754
aF0.84
aF-0.51
aF-0.18
aI3186
aI-342
aI20068
aF-365.24
aF273.24
aF71.76
aa(lp150
g2
ag3
aI0
aF18.43125581741333
aF0.69
aF-0.82
aF-0.18
aI2427
aI1146
aI19011
aF-293.48
aF447.12
aF66.24
aa(lp151
g2
ag3
aI0
aF18.531272888183594
aF0.55
aF-0.93
aF-0.19
aI2006
aI969
aI7256
aF-231.84
aF523.48
aF52.44
aa(lp152
g2
ag3
aI0
aF18.65395188331604
aF0.48
aF-0.98
aF-0.19
aI686
aI-161
aI1813
aF-218.04
aF545.56
aF44.16
aa(lp153
g2
ag3
aI0
aF18.76639986038208
aF0.48
aF-1.02
aF-0.19
aI-354
aI-262
aI-6466
aF-212.52
aF549.24
aF39.56
aa(lp154
g2
ag3
aI0
aF18.93106198310852
aF0.51
aF-1.06
aF-0.13
aI-1066
aI3425
aI-17559
aF-268.64
aF498.64
aF37.72
aa(lp155
g2
ag3
aI0
aF19.03084683418274
aF0.75
aF-1.02
aF-0.15
aI-368
aI1946
aI-26883
aF-366.16
aF339.48
aF24.84
aa(lp156
g2
ag3
aI0
aF19.131255865097046
aF0.89
aF-0.68
aF-0.1
aI-1577
aI-383
aI-28120
aF-386.4
aF74.52
aF4.6
aa(lp157
g2
ag3
aI0
aF19.266288995742798
aF0.92
aF-0.33
aF-0.09
aI-2927
aI-1186
aI-24120
aF-282.44
aF-168.36
aF-1.84
aa(lp158
g2
ag3
aI0
aF19.43146300315857
aF0.83
aF0.06
aF-0.09
aI-3816
aI216
aI-21142
aF-119.6
aF-315.56
aF-24.84
aa(lp159
g2
ag3
aI0
aF19.531308889389038
aF0.67
aF0.39
aF-0.11
aI-1153
aI-700
aI-15511
aF40.48
aF-358.8
aF-39.56
aa(lp160
g2
ag3
aI0
aF19.641361951828003
aF0.45
aF0.64
aF-0.08
aI-1766
aI-3878
aI-12998
aF165.6
aF-352.36
aF-47.84
aa(lp161
g2
ag3
aI0
aF19.778657913208008
aF0.18
aF0.78
aF-0.02
aI-1248
aI-4043
aI-5914
aF253.0
aF-322.92
aF-70.84
aa(lp162
g2
ag3
aI0
aF19.930867910385132
aF0.1
aF0.85
aF-0.03
aI1692
aI884
aI4817
aF264.96
aF-317.4
aF-71.76
aa(lp163
g2
ag3
aI0
aF20.03067398071289
aF0.12
aF0.87
aF-0.04
aI5102
aI1893
aI14670
aF181.24
aF-349.6
aF-45.08
aa(lp164
g2
ag3
aI0
aF20.131147861480713
aF0.32
aF0.73
aF-0.12
aI6053
aI3057
aI20966
aF22.08
aF-351.44
aF-2.76
aa(lp165
g2
ag3
aI0
aF20.25617480278015
aF0.51
aF0.57
aF-0.15
aI3437
aI2323
aI23721
aF-74.52
aF-321.08
aF12.88
aa(lp166
g2
ag3
aI0
aF20.430603981018066
aF0.87
aF0.22
aF-0.17
aI3750
aI-1399
aI23492
aF-252.08
aF-188.6
aF33.12
aa(lp167
g2
ag3
aI0
aF20.531308889389038
aF0.88
aF-0.11
aF-0.17
aI3814
aI-1792
aI22789
aF-356.04
aF13.8
aF64.4
aa(lp168
g2
ag3
aI0
aF20.647568941116333
aF0.85
aF-0.53
aF-0.23
aI4215
aI-459
aI20141
aF-367.08
aF231.84
aF92.92
aa(lp169
g2
ag3
aI0
aF20.77040386199951
aF0.68
aF-0.85
aF-0.2
aI2851
aI-203
aI20409
aF-305.44
aF414.92
aF88.32
aa(lp170
g2
ag3
aI0
aF20.930043935775757
aF0.51
aF-0.97
aF-0.22
aI1944
aI1790
aI6410
aF-228.16
aF521.64
aF68.08
aa(lp171
g2
ag3
aI0
aF21.03015899658203
aF0.44
aF-1.0
aF-0.2
aI320
aI420
aI790
aF-200.56
aF550.16
aF56.12
aa(lp172
g2
ag3
aI0
aF21.137662887573242
aF0.43
aF-1.04
aF-0.18
aI-1185
aI611
aI-9687
aF296.24
aF2133.48
aF-14602.24
aa(lp173
g2
ag3
aI0
aF21.26147699356079
aF0.57
aF-1.05
aF-0.17
aI-1898
aI1993
aI-17798
aF-309.12
aF434.24
aF54.28
aa(lp174
g2
ag3
aI0
aF21.430516958236694
aF0.76
aF-0.97
aF-0.14
aI-2012
aI1710
aI-23912
aF-379.96
aF244.72
aF41.4
aa(lp175
g2
ag3
aI0
aF21.53121590614319
aF0.88
aF-0.67
aF-0.15
aI-2500
aI-172
aI-25935
aF-363.4
aF-3.68
aF22.08
aa(lp176
g2
ag3
aI0
aF21.649104833602905
aF0.89
aF-0.31
aF-0.1
aI-2644
aI-975
aI-24704
aF-241.96
aF-215.28
aF1.84
aa(lp177
g2
ag3
aI0
aF21.76387882232666
aF0.8
aF0.08
aF-0.09
aI-2549
aI-535
aI-20089
aF-71.76
aF-329.36
aF-18.4
aa(lp178
g2
ag3
aI0
aF21.93099594116211
aF0.65
aF0.39
aF-0.07
aI-2237
aI-2834
aI-13855
aF4.6
aF-355.12
aF-29.44
aa(lp179
g2
ag3
aI0
aF22.030672788619995
aF0.48
aF0.64
aF-0.05
aI-2649
aI-3666
aI-9969
aF121.44
aF-360.64
aF-40.48
aa(lp180
g2
ag3
aI0
aF22.141310930252075
aF0.28
aF0.81
aF-0.02
aI-2270
aI-2182
aI-5981
aF206.08
aF-341.32
aF-67.16
aa(lp181
g2
ag3
aI0
aF22.255037784576416
aF0.16
aF0.87
aF0.01
aI560
aI129
aI2987
aF238.28
aF-329.36
aF-84.64
aa(lp182
g2
ag3
aI0
aF22.4038188457489
aF0.17
aF0.88
aF-0.0
aI2523
aI1243
aI10908
aF199.64
aF-345.0
aF-77.28
aa(lp183
g2
ag3
aI0
aF22.531192779541016
aF0.29
aF0.82
aF-0.06
aI3787
aI1314
aI17130
aF91.08
aF-361.56
aF-54.28
aa(lp184
g2
ag3
aI0
aF22.648984909057617
aF0.5
aF0.67
aF-0.08
aI4660
aI-2041
aI21494
aF-72.68
aF-326.6
aF-20.24
aa(lp185
g2
ag3
aI0
aF22.77165389060974
aF0.72
aF0.38
aF-0.14
aI5489
aI-3263
aI21525
aF-231.84
aF-212.52
aF30.36
aa(lp186
g2
ag3
aI0
aF22.930609941482544
aF0.85
aF0.04
aF-0.17
aI5729
aI-489
aI21561
aF-335.8
aF-28.52
aF76.36
aa(lp187
g2
ag3
aI0
aF23.031183004379272
aF0.86
aF-0.38
aF-0.24
aI4288
aI-1839
aI21068
aF-371.68
aF183.08
aF86.48
aa(lp188
g2
ag3
aI0
aF23.14016079902649
aF0.71
aF-0.71
aF-0.23
aI3101
aI805
aI21677
aF-322.92
aF376.28
aF87.4
aa(lp189
g2
ag3
aI0
aF23.263835906982422
aF0.51
aF-0.93
aF-0.23
aI2882
aI-935
aI11259
aF-20961.28
aF-14602.24
aF296.24
aa(lp190
g2
ag3
aI0
aF23.431177854537964
aF0.45
aF-0.98
aF-0.22
aI1821
aI-139
aI6102
aF-184.0
aF556.6
aF73.6
aa(lp191
g2
ag3
aI0
aF23.531226873397827
aF0.44
aF-1.02
aF-0.23
aI-486
aI1423
aI-3143
aF-174.8
aF564.88
aF74.52
aa(lp192
g2
ag3
aI0
aF23.631094932556152
aF0.48
aF-1.06
aF-0.22
aI-2479
aI3037
aI-14388
aF-214.36
aF538.2
aF69.0
aa(lp193
g2
ag3
aI0
aF23.76263999938965
aF0.72
aF-1.07
aF-0.2
aI-1617
aI809
aI-24805
aF-319.24
aF421.36
aF57.96
aa(lp194
g2
ag3
aI0
aF23.930596828460693
aF0.9
aF-0.85
aF-0.22
aI-3403
aI325
aI-29163
aF-380.88
aF185.84
aF45.08
aa(lp195
g2
ag3
aI0
aF24.031214952468872
aF0.91
aF-0.49
aF-0.2
aI-4335
aI-3724
aI-24811
aF-318.32
aF-84.64
aF38.64
aa(lp196
g2
ag3
aI0
aF24.13066291809082
aF0.87
aF-0.09
aF-0.17
aI-5274
aI-903
aI-19886
aF-176.64
aF-264.04
aF26.68
aa(lp197
g2
ag3
aI0
aF24.281380891799927
aF0.73
aF0.28
aF-0.15
aI-3377
aI533
aI-15785
aF-30.36
aF-345.0
aF-0.92
aa(lp198
g2
ag3
aI0
aF24.43130087852478
aF0.53
aF0.57
aF-0.12
aI-3239
aI-1420
aI-13008
aF99.36
aF-363.4
aF-25.76
aa(lp199
g2
ag3
aI0
aF24.530133962631226
aF0.31
aF0.75
aF-0.09
aI-3122
aI-1932
aI-9661
aF205.16
aF-341.32
aF-48.76
aa(lp200
g2
ag3
aI0
aF24.65275287628174
aF0.16
aF0.84
aF-0.07
aI-907
aI-252
aI-3245
aF264.04
aF-316.48
aF-67.16
aa(lp201
g2
ag3
aI0
aF24.765252828598022
aF0.08
aF0.89
aF-0.06
aI777
aI1414
aI4829
aF260.36
aF-319.24
aF-64.4
aa(lp202
g2
ag3
aI0
aF24.93025279045105
aF0.14
aF0.89
aF-0.06
aI2903
aI1252
aI12100
aF188.6
aF-345.0
aF-53.36
aa(lp203
g2
ag3
aI0
aF25.0311439037323
aF0.27
aF0.83
aF-0.08
aI4508
aI392
aI18302
aF56.12
aF-360.64
aF-24.84
aa.