(lp0
(lp1
S'lisa'
p2
aS'bicep curls'
p3
aI0
aF0.0001590251922607422
aF0.64
aF0.32
aF0.82
aI51
aI-19
aI60
aF-299.0
aF183.08
aF-351.44
aa(lp4
g2
ag3
aI0
aF0.24382400512695312
aF0.64
aF0.32
aF0.82
aI-13
aI-89
aI78
aF-298.08
aF183.08
aF-352.36
aa(lp5
g2
ag3
aI0
aF0.36260104179382324
aF0.64
aF0.32
aF0.82
aI26
aI99
aI74
aF-299.92
aF185.84
aF-351.44
aa(lp6
g2
ag3
aI0
aF0.4949169158935547
aF0.64
aF0.32
aF0.82
aI28
aI-10
aI23
aF-301.76
aF183.08
aF-351.44
aa(lp7
g2
ag3
aI0
aF0.6371381282806396
aF0.64
aF0.32
aF0.82
aI22
aI19
aI97
aF-299.0
aF184.0
aF-350.52
aa(lp8
g2
ag3
aI0
aF0.7371809482574463
aF0.64
aF0.32
aF0.82
aI-27
aI2
aI110
aF-298.08
aF184.0
aF-353.28
aa(lp9
g2
ag3
aI0
aF0.8389661312103271
aF0.64
aF0.32
aF0.83
aI117
aI566
aI454
aF-299.0
aF182.16
aF-352.36
aa(lp10
g2
ag3
aI0
aF0.9587390422821045
aF0.61
aF0.28
aF0.87
aI-872
aI4942
aI1789
aF-289.8
aF188.6
aF-357.88
aa(lp11
g2
ag3
aI0
aF1.0888299942016602
aF0.61
aF0.24
aF0.85
aI-1633
aI3474
aI1363
aF-265.88
aF202.4
aF-379.96
aa(lp12
g2
ag3
aI0
aF1.2367939949035645
aF0.62
aF0.22
aF0.88
aI-1539
aI2495
aI3820
aF-241.04
aF220.8
aF-389.16
aa(lp13
g2
ag3
aI0
aF1.3370230197906494
aF0.68
aF0.17
aF1.02
aI-7737
aI-167
aI8315
aF-230.0
aF278.76
aF-397.44
aa(lp14
g2
ag3
aI0
aF1.462697982788086
aF0.7
aF0.03
aF1.07
aI-14290
aI-5920
aI10165
aF-233.68
aF408.48
aF-355.12
aa(lp15
g2
ag3
aI0
aF1.5874760150909424
aF0.64
aF-0.16
aF0.98
aI-18250
aI-4796
aI12564
aF-205.16
aF551.08
aF-239.2
aa(lp16
g2
ag3
aI0
aF1.7372000217437744
aF0.53
aF-0.35
aF0.74
aI-16029
aI-4064
aI10579
aF-115.92
aF637.56
aF-90.16
aa(lp17
g2
ag3
aI0
aF1.8358790874481201
aF0.44
aF-0.54
aF0.48
aI-11128
aI-2596
aI7557
aF-28.52
aF639.4
aF29.44
aa(lp18
g2
ag3
aI0
aF1.9487950801849365
aF0.37
aF-0.77
aF0.28
aI-6508
aI-3205
aI4751
aF38.64
aF617.32
aF101.2
aa(lp19
g2
ag3
aI0
aF2.067596912384033
aF0.26
aF-0.9
aF0.09
aI-2695
aI-5456
aI2515
aF91.08
aF596.16
aF136.16
aa(lp20
g2
ag3
aI0
aF2.2371671199798584
aF0.17
aF-0.95
aF-0.0
aI-217
aI176
aI426
aF112.24
aF586.96
aF147.2
aa(lp21
g2
ag3
aI0
aF2.3362340927124023
aF0.15
aF-0.96
aF-0.04
aI5366
aI699
aI-3176
aF105.8
aF591.56
aF139.84
aa(lp22
g2
ag3
aI0
aF2.437371015548706
aF0.2
aF-0.94
aF0.03
aI11188
aI2813
aI-7134
aF62.56
aF626.52
aF83.72
aa(lp23
g2
ag3
aI0
aF2.5701029300689697
aF0.24
aF-0.88
aF0.25
aI12392
aI3290
aI-11666
aF-15.64
aF655.96
aF-18.4
aa(lp24
g2
ag3
aI0
aF2.7373239994049072
aF0.39
aF-0.7
aF0.45
aI13951
aI10099
aI-8989
aF-116.84
aF632.96
aF-135.24
aa(lp25
g2
ag3
aI0
aF2.8367040157318115
aF0.5
aF-0.52
aF0.73
aI15886
aI7075
aI-6786
aF-157.32
aF557.52
aF-272.32
aa(lp26
g2
ag3
aI0
aF2.9473960399627686
aF0.54
aF-0.3
aF0.91
aI13881
aI-664
aI-5117
aF-175.72
aF438.84
aF-373.52
aa(lp27
g2
ag3
aI0
aF3.0725839138031006
aF0.52
aF-0.09
aF1.01
aI11385
aI-261
aI-3329
aF-182.16
aF315.56
aF-419.52
aa(lp28
g2
ag3
aI0
aF3.2371790409088135
aF0.51
aF0.07
aF1.04
aI4047
aI2917
aI-1251
aF-168.36
aF227.24
aF-443.44
aa(lp29
g2
ag3
aI0
aF3.337130069732666
aF0.52
aF0.14
aF1.07
aI-3663
aI606
aI2176
aF-149.96
aF218.96
aF-448.04
aa(lp30
g2
ag3
aI0
aF3.4525630474090576
aF0.51
aF0.09
aF1.18
aI-14054
aI2233
aI5553
aF-144.44
aF315.56
aF-438.84
aa(lp31
g2
ag3
aI0
aF3.5726780891418457
aF0.52
aF-0.07
aF1.16
aI-21772
aI-2976
aI6318
aF-130.64
aF491.28
aF-361.56
aa(lp32
g2
ag3
aI0
aF3.7371740341186523
aF0.46
aF-0.26
aF0.97
aI-20957
aI-8386
aI6478
aF-115.0
aF617.32
aF-195.96
aa(lp33
g2
ag3
aI0
aF3.8367409706115723
aF0.39
aF-0.46
aF0.75
aI-18075
aI-3176
aI6288
aF-60.72
aF653.2
aF-31.28
aa(lp34
g2
ag3
aI0
aF3.9399900436401367
aF0.36
aF-0.64
aF0.42
aI-13370
aI-3102
aI5150
aF0.92
aF620.08
aF95.68
aa(lp35
g2
ag3
aI0
aF4.081348896026611
aF0.28
aF-0.81
aF0.14
aI-7884
aI-5182
aI3673
aF296.24
aF2133.48
aF-14602.24
aa(lp36
g2
ag3
aI0
aF4.237174034118652
aF0.19
aF-0.89
aF-0.07
aI-3399
aI-1959
aI2502
aF77.28
aF553.84
aF195.04
aa(lp37
g2
ag3
aI0
aF4.341373920440674
aF0.13
aF-0.9
aF-0.16
aI3271
aI-909
aI-768
aF103.04
aF539.12
aF203.32
aa(lp38
g2
ag3
aI0
aF4.4550700187683105
aF0.15
aF-0.9
aF-0.14
aI9257
aI290
aI-4742
aF89.24
aF571.32
aF169.28
aa(lp39
g2
ag3
aI0
aF4.577444076538086
aF0.2
aF-0.89
aF-0.0
aI14309
aI2940
aI-8055
aF45.08
aF628.36
aF84.64
aa(lp40
g2
ag3
aI0
aF4.736243963241577
aF0.28
aF-0.84
aF0.26
aI16242
aI7378
aI-8556
aF-46.92
aF656.88
aF-43.24
aa(lp41
g2
ag3
aI0
aF4.836518049240112
aF0.41
aF-0.7
aF0.52
aI15299
aI5507
aI-6773
aF-115.0
aF621.92
aF-188.6
aa(lp42
g2
ag3
aI0
aF4.94032096862793
aF0.49
aF-0.52
aF0.73
aI15077
aI-442
aI-7348
aF-161.92
aF538.2
aF-298.08
aa(lp43
g2
ag3
aI0
aF5.0650389194488525
aF0.53
aF-0.3
aF0.93
aI12944
aI3566
aI-5967
aF-186.76
aF417.68
aF-381.8
aa(lp44
g2
ag3
aI0
aF5.216315031051636
aF0.55
aF-0.1
aF1.0
aI8590
aI-277
aI-3813
aF-176.64
aF309.12
aF-429.64
aa(lp45
g2
ag3
aI0
aF5.337101936340332
aF0.55
aF0.04
aF1.03
aI3842
aI710
aI-1292
aF-177.56
aF239.2
aF-437.92
aa(lp46
g2
ag3
aI0
aF5.449105978012085
aF0.57
aF0.07
aF1.11
aI-5358
aI1788
aI2994
aF-161.0
aF256.68
aF-442.52
aa(lp47
g2
ag3
aI0
aF5.571451902389526
aF0.57
aF0.03
aF1.18
aI-14268
aI-340
aI6734
aF-161.92
aF306.36
aF-437.92
aa(lp48
g2
ag3
aI0
aF5.736198902130127
aF0.54
aF-0.12
aF1.12
aI-20670
aI-3576
aI8225
aF-156.4
aF463.68
aF-373.52
aa(lp49
g2
ag3
aI0
aF5.837121963500977
aF0.51
aF-0.35
aF0.94
aI-20385
aI-5195
aI7811
aF-123.28
aF601.68
aF-227.24
aa(lp50
g2
ag3
aI0
aF5.959929943084717
aF0.44
aF-0.55
aF0.68
aI-18110
aI-5276
aI7066
aF-63.48
aF652.28
aF-59.8
aa(lp51
g2
ag3
aI0
aF6.080060005187988
aF0.33
aF-0.67
aF0.36
aI-13485
aI-4951
aI5500
aF11.96
aF626.52
aF87.4
aa(lp52
g2
ag3
aI0
aF6.236146926879883
aF0.24
aF-0.78
aF0.07
aI-7836
aI-1631
aI3604
aF70.84
aF563.04
aF184.0
aa(lp53
g2
ag3
aI0
aF6.335958003997803
aF0.2
aF-0.86
aF-0.15
aI-2358
aI-117
aI1043
aF92.0
aF520.72
aF223.56
aa(lp54
g2
ag3
aI0
aF6.447679042816162
aF0.16
aF-0.89
aF-0.22
aI3648
aI-1168
aI-1769
aF96.6
aF522.56
aF221.72
aa(lp55
g2
ag3
aI0
aF6.572549104690552
aF0.18
aF-0.88
aF-0.18
aI9543
aI108
aI-5419
aF76.36
aF567.64
aF177.56
aa(lp56
g2
ag3
aI0
aF6.737015962600708
aF0.24
aF-0.87
aF-0.04
aI14535
aI2765
aI-8317
aF14.72
aF623.76
aF86.48
aa(lp57
g2
ag3
aI0
aF6.837067127227783
aF0.36
aF-0.83
aF0.24
aI15358
aI7803
aI-9276
aF-75.44
aF644.92
aF-52.44
aa(lp58
g2
ag3
aI0
aF6.940148115158081
aF0.48
aF-0.7
aF0.5
aI14249
aI4424
aI-8451
aF-154.56
aF603.52
aF-184.0
aa(lp59
g2
ag3
aI0
aF7.057713031768799
aF0.58
aF-0.54
aF0.7
aI13055
aI1734
aI-8105
aF-183.08
aF564.88
aF-241.04
aa(lp60
g2
ag3
aI0
aF7.183840036392212
aF0.6
aF-0.34
aF0.84
aI11109
aI6441
aI-5426
aF-217.12
aF467.36
aF-329.36
aa(lp61
g2
ag3
aI0
aF7.337363958358765
aF0.6
aF-0.14
aF0.95
aI8855
aI-1066
aI-4641
aF-199.64
aF361.56
aF-398.36
aa(lp62
g2
ag3
aI0
aF7.457597017288208
aF0.59
aF-0.01
aF1.03
aI2801
aI1874
aI-2055
aF-201.48
aF276.92
aF-416.76
aa(lp63
g2
ag3
aI0
aF7.581241130828857
aF0.61
aF0.03
aF1.09
aI-4377
aI623
aI2431
aF-184.92
aF262.2
aF-423.2
aa(lp64
g2
ag3
aI0
aF7.737137079238892
aF0.6
aF0.0
aF1.15
aI-13192
aI489
aI6781
aF-185.84
aF339.48
aF-413.08
aa(lp65
g2
ag3
aI0
aF7.837167024612427
aF0.57
aF-0.15
aF1.12
aI-19379
aI-3359
aI8144
aF-170.2
aF485.76
aF-342.24
aa(lp66
g2
ag3
aI0
aF7.945199012756348
aF0.53
aF-0.36
aF0.88
aI-20100
aI-7218
aI8684
aF-135.24
aF614.56
aF-192.28
aa(lp67
g2
ag3
aI0
aF8.057826042175293
aF0.41
aF-0.53
aF0.65
aI-16390
aI-4503
aI6902
aF-63.48
aF647.68
aF-29.44
aa(lp68
g2
ag3
aI0
aF8.19016408920288
aF0.35
aF-0.68
aF0.37
aI-12183
aI-3260
aI5153
aF-1.84
aF622.84
aF95.68
aa(lp69
g2
ag3
aI0
aF8.3371000289917
aF0.32
aF-0.82
aF0.07
aI-6807
aI-7174
aI3241
aF55.2
aF567.64
aF173.88
aa(lp70
g2
ag3
aI0
aF8.44762110710144
aF0.17
aF-0.89
aF-0.07
aI-832
aI-7136
aI1420
aF119.6
aF542.8
aF195.96
aa(lp71
g2
ag3
aI0
aF8.559772968292236
aF0.14
aF-0.9
aF-0.14
aI4350
aI3951
aI-2920
aF112.24
aF557.52
aF182.16
aa(lp72
g2
ag3
aI0
aF8.682464122772217
aF0.2
aF-0.9
aF-0.09
aI10848
aI1757
aI-6659
aF55.2
aF608.12
aF123.28
aa(lp73
g2
ag3
aI0
aF8.837054014205933
aF0.29
aF-0.87
aF0.06
aI15299
aI635
aI-11253
aF13.8
aF631.12
aF65.32
aa(lp74
g2
ag3
aI0
aF8.947667121887207
aF0.41
aF-0.77
aF0.3
aI14267
aI6337
aI-12373
aF-88.32
aF644.92
aF-62.56
aa(lp75
g2
ag3
aI0
aF9.063995122909546
aF0.58
aF-0.57
aF0.58
aI13225
aI12029
aI-8465
aF-176.64
aF587.88
aF-202.4
aa(lp76
g2
ag3
aI0
aF9.18373703956604
aF0.63
aF-0.37
aF0.78
aI13330
aI-737
aI-6955
aF-197.8
aF488.52
aF-320.16
aa(lp77
g2
ag3
aI0
aF9.3370840549469
aF0.64
aF-0.17
aF0.9
aI9949
aI3190
aI-5338
aF-219.88
aF373.52
aF-384.56
aa(lp78
g2
ag3
aI0
aF9.457350969314575
aF0.64
aF0.01
aF0.97
aI6146
aI-425
aI-3469
aF-213.44
aF271.4
aF-416.76
aa(lp79
g2
ag3
aI0
aF9.573909997940063
aF0.66
aF0.07
aF1.05
aI-1422
aI1974
aI1290
aF-197.8
aF232.76
aF-425.04
aa(lp80
g2
ag3
aI0
aF9.736088991165161
aF0.66
aF0.05
aF1.13
aI-12121
aI252
aI6905
aF-184.92
aF300.84
aF-420.44
aa(lp81
g2
ag3
aI0
aF9.836357116699219
aF0.63
aF-0.08
aF1.14
aI-20498
aI-4427
aI10121
aF-186.76
aF463.68
aF-349.6
aa(lp82
g2
ag3
aI0
aF9.94382905960083
aF0.61
aF-0.3
aF0.97
aI-22656
aI-6958
aI10873
aF-136.16
aF611.8
aF-184.0
aa(lp83
g2
ag3
aI0
aF10.061324119567871
aF0.47
aF-0.47
aF0.66
aI-19946
aI-2443
aI7239
aF-55.2
aF643.08
aF2.76
aa(lp84
g2
ag3
aI0
aF10.190256118774414
aF0.41
aF-0.63
aF0.33
aI-12959
aI-2594
aI4210
aF0.0
aF591.56
aF133.4
aa(lp85
g2
ag3
aI0
aF10.336940050125122
aF0.33
aF-0.78
aF0.03
aI-5844
aI-5968
aI2158
aF53.36
aF544.64
aF201.48
aa(lp86
g2
ag3
aI0
aF10.436965942382812
aF0.22
aF-0.83
aF-0.16
aI184
aI-64
aI-579
aF68.08
aF527.16
aF215.28
aa(lp87
g2
ag3
aI0
aF10.553968906402588
aF0.24
aF-0.84
aF-0.18
aI8160
aI531
aI-3845
aF61.64
aF541.88
aF202.4
aa(lp88
g2
ag3
aI0
aF10.674935102462769
aF0.28
aF-0.85
aF-0.07
aI13350
aI1562
aI-7784
aF23.92
aF595.24
aF137.08
aa(lp89
g2
ag3
aI0
aF10.836940050125122
aF0.35
aF-0.83
aF0.14
aI15789
aI9017
aI-9138
aF-58.88
aF635.72
aF17.48
aa(lp90
g2
ag3
aI0
aF10.936903953552246
aF0.49
aF-0.7
aF0.44
aI15453
aI9601
aI-8134
aF-147.2
aF619.16
aF-137.08
aa(lp91
g2
ag3
aI0
aF11.048969030380249
aF0.55
aF-0.54
aF0.69
aI13955
aI3165
aI-7094
aF-195.04
aF541.88
aF-264.96
aa(lp92
g2
ag3
aI0
aF11.195276021957397
aF0.56
aF-0.32
aF0.82
aI12183
aI2896
aI-5884
aF-205.16
aF438.84
aF-352.36
aa(lp93
g2
ag3
aI0
aF11.336055040359497
aF0.55
aF-0.09
aF0.95
aI8737
aI2019
aI-5213
aF-200.56
aF325.68
aF-404.8
aa(lp94
g2
ag3
aI0
aF11.43621301651001
aF0.6
aF-0.03
aF1.05
aI437
aI251
aI-974
aF-187.68
aF264.96
aF-419.52
aa(lp95
g2
ag3
aI0
aF11.548893928527832
aF0.6
aF-0.01
aF1.14
aI-8120
aI863
aI4492
aF-189.52
aF302.68
aF-412.16
aa(lp96
g2
ag3
aI0
aF11.698669910430908
aF0.62
aF-0.12
aF1.17
aI-19089
aI-2222
aI8269
aF-179.4
aF450.8
aF-361.56
aa(lp97
g2
ag3
aI0
aF11.836946964263916
aF0.59
aF-0.3
aF1.03
aI-23827
aI-8926
aI9615
aF-154.56
aF599.84
aF-194.12
aa(lp98
g2
ag3
aI0
aF11.93643307685852
aF0.51
aF-0.47
aF0.77
aI-21255
aI-9715
aI8795
aF-122.36
aF633.88
aF-88.32
aa(lp99
g2
ag3
aI0
aF12.043750047683716
aF0.38
aF-0.58
aF0.43
aI-15548
aI-7960
aI6592
aF-24.84
aF618.24
aF93.84
aa(lp100
g2
ag3
aI0
aF12.198813915252686
aF0.25
aF-0.7
aF0.07
aI-9264
aI-2850
aI4709
aF57.04
aF541.88
aF206.08
aa(lp101
g2
ag3
aI0
aF12.336910963058472
aF0.18
aF-0.79
aF-0.24
aI-3388
aI101
aI1304
aF97.52
aF480.24
aF257.6
aa(lp102
g2
ag3
aI0
aF12.436944007873535
aF0.13
aF-0.82
aF-0.33
aI3761
aI-107
aI-3864
aF100.28
aF467.36
aF264.04
aa(lp103
g2
ag3
aI0
aF12.556286096572876
aF0.2
aF-0.81
aF-0.28
aI10257
aI949
aI-8461
aF57.96
aF515.2
aF229.08
aa(lp104
g2
ag3
aI0
aF12.673854112625122
aF0.28
aF-0.82
aF-0.14
aI15749
aI4750
aI-10842
aF-16.56
aF591.56
aF138.92
aa(lp105
g2
ag3
aI0
aF12.836410999298096
aF0.44
aF-0.74
aF0.14
aI16410
aI10422
aI-10790
aF-134.32
aF621.92
aF-5.52
aa(lp106
g2
ag3
aI0
aF12.936455011367798
aF0.59
aF-0.61
aF0.45
aI15579
aI7379
aI-8094
aF-208.84
aF577.76
aF-165.6
aa(lp107
g2
ag3
aI0
aF13.051314115524292
aF0.64
aF-0.41
aF0.72
aI14435
aI5121
aI-7882
aF-241.04
aF481.16
aF-291.64
aa(lp108
g2
ag3
aI0
aF13.198852062225342
aF0.65
aF-0.2
aF0.84
aI10677
aI4566
aI-6436
aF-235.52
aF358.8
aF-375.36
aa(lp109
g2
ag3
aI0
aF13.336965084075928
aF0.65
aF-0.02
aF0.97
aI6707
aI446
aI-4528
aF-221.72
aF256.68
aF-405.72
aa(lp110
g2
ag3
aI0
aF13.4375319480896
aF0.66
aF0.03
aF1.05
aI-5396
aI425
aI4090
aF-207.92
aF259.44
aF-410.32
aa(lp111
g2
ag3
aI0
aF13.55883002281189
aF0.65
aF-0.01
aF1.12
aI-13837
aI512
aI8662
aF-209.76
aF310.96
aF-402.96
aa(lp112
g2
ag3
aI0
aF13.672450065612793
aF0.61
aF-0.17
aF1.11
aI-20797
aI-3323
aI9393
aF-194.12
aF467.36
aF-345.92
aa(lp113
g2
ag3
aI0
aF13.83690595626831
aF0.55
aF-0.36
aF0.89
aI-21497
aI-6890
aI8230
aF-153.64
aF603.52
aF-191.36
aa(lp114
g2
ag3
aI0
aF13.957552909851074
aF0.44
aF-0.51
aF0.61
aI-17340
aI-7458
aI6190
aF-88.32
aF640.32
aF-11.96
aa(lp115
g2
ag3
aI0
aF14.069103002548218
aF0.37
aF-0.65
aF0.3
aI-12567
aI-3560
aI3979
aF-20.24
aF597.08
aF127.88
aa(lp116
g2
ag3
aI0
aF14.23685598373413
aF0.32
aF-0.79
aF-0.06
aI-6101
aI-4591
aI1113
aF25.76
aF535.44
aF208.84
aa(lp117
g2
ag3
aI0
aF14.33692193031311
aF0.24
aF-0.84
aF-0.21
aI2056
aI-443
aI-1405
aF47.84
aF509.68
aF236.44
aa(lp118
g2
ag3
aI0
aF14.436963081359863
aF0.25
aF-0.84
aF-0.2
aI8755
aI2321
aI-3898
aF31.28
aF540.04
aF205.16
aa(lp119
g2
ag3
aI0
aF14.55268406867981
aF0.3
aF-0.81
aF-0.1
aI14736
aI4375
aI-7241
aF-28.52
aF598.92
aF125.12
aa(lp120
g2
ag3
aI0
aF14.671202898025513
aF0.4
aF-0.76
aF0.21
aI18340
aI7495
aI-9684
aF-115.92
aF632.96
aF-19.32
aa(lp121
g2
ag3
aI0
aF14.836915016174316
aF0.52
aF-0.64
aF0.56
aI17450
aI11191
aI-7496
aF-188.6
aF586.96
aF-193.2
aa(lp122
g2
ag3
aI0
aF14.947642087936401
aF0.57
aF-0.45
aF0.82
aI15072
aI2047
aI-7030
aF-211.6
aF482.08
aF-322.0
aa(lp123
g2
ag3
aI0
aF15.062904119491577
aF0.6
aF-0.27
aF0.99
aI8424
aI2544
aI-5587
aF-217.12
aF369.84
aF-386.4
aa(lp124
g2
ag3
aI0
aF15.236118078231812
aF0.62
aF-0.15
aF1.06
aI871
aI-173
aI-1761
aF-210.68
aF314.64
aF-399.28
aa(lp125
g2
ag3
aI0
aF15.336873054504395
aF0.64
aF-0.13
aF1.13
aI-8250
aI402
aI4807
aF-214.36
aF323.84
aF-396.52
aa(lp126
g2
ag3
aI0
aF15.437052965164185
aF0.63
aF-0.21
aF1.13
aI-16967
aI-3648
aI7702
aF-203.32
aF422.28
aF-363.4
aa(lp127
g2
ag3
aI0
aF15.545238971710205
aF0.59
aF-0.37
aF0.98
aI-20537
aI-7016
aI8026
aF-193.2
aF556.6
aF-244.72
aa(lp128
g2
ag3
aI0
aF15.694828987121582
aF0.53
aF-0.54
aF0.72
aI-19424
aI-7863
aI7787
aF-136.16
aF628.36
aF-68.08
aa(lp129
g2
ag3
aI0
aF15.836833953857422
aF0.43
aF-0.65
aF0.41
aI-15621
aI-6055
aI6201
aF-52.44
aF611.8
aF94.76
aa(lp130
g2
ag3
aI0
aF15.951111078262329
aF0.34
aF-0.71
aF0.05
aI-10068
aI-3931
aI5081
aF18.4
aF540.04
aF209.76
aa(lp131
g2
ag3
aI0
aF16.065258979797363
aF0.25
aF-0.8
aF-0.23
aI-2431
aI-3414
aI1974
aF69.0
aF481.16
aF258.52
aa(lp132
g2
ag3
aI0
aF16.187712907791138
aF0.17
aF-0.81
aF-0.31
aI5495
aI-217
aI-2093
aF94.76
aF483.0
aF252.08
aa(lp133
g2
ag3
aI0
aF16.33691692352295
aF0.18
aF-0.82
aF-0.26
aI12269
aI1231
aI-6456
aF64.4
aF545.56
aF205.16
aa(lp134
g2
ag3
aI0
aF16.435651063919067
aF0.27
aF-0.84
aF-0.05
aI17360
aI4488
aI-9323
aF-11.96
aF621.0
aF93.84
aa(lp135
g2
ag3
aI0
aF16.561382055282593
aF0.4
aF-0.77
aF0.32
aI15837
aI13414
aI-9482
aF-112.24
aF637.56
aF-71.76
aa(lp136
g2
ag3
aI0
aF16.677279949188232
aF0.5
aF-0.63
aF0.58
aI15103
aI4174
aI-6706
aF-172.04
aF583.28
aF-218.04
aa(lp137
g2
ag3
aI0
aF16.8369779586792
aF0.54
aF-0.46
aF0.83
aI12212
aI6222
aI-6548
aF-194.12
aF489.44
aF-322.92
aa(lp138
g2
ag3
aI0
aF16.941436052322388
aF0.57
aF-0.3
aF0.95
aI10067
aI-1351
aI-6365
aF-207.92
aF388.24
aF-381.8
aa(lp139
g2
ag3
aI0
aF17.056446075439453
aF0.59
aF-0.15
aF1.06
aI4002
aI1695
aI-3240
aF-206.08
aF310.04
aF-402.96
aa(lp140
g2
ag3
aI0
aF17.205030918121338
aF0.63
aF-0.14
aF1.18
aI-7646
aI614
aI4333
aF-200.56
aF305.44
aF-407.56
aa(lp141
g2
ag3
aI0
aF17.336965084075928
aF0.61
aF-0.19
aF1.19
aI-17845
aI-3037
aI7792
aF-195.04
aF401.12
aF-382.72
aa(lp142
g2
ag3
aI0
aF17.444047927856445
aF0.56
aF-0.35
aF1.05
aI-23441
aI-8132
aI7938
aF-184.92
aF551.08
aF-259.44
aa(lp143
g2
ag3
aI0
aF17.567639112472534
aF0.52
aF-0.5
aF0.74
aI-21544
aI-10663
aI8048
aF-133.4
aF632.04
aF-58.88
aa(lp144
g2
ag3
aI0
aF17.73525309562683
aF0.4
aF-0.62
aF0.4
aI-16844
aI-11276
aI6035
aF-31.28
aF594.32
aF126.04
aa(lp145
g2
ag3
aI0
aF17.83683490753174
aF0.23
aF-0.67
aF0.03
aI-10011
aI-4727
aI5788
aF68.08
aF504.16
aF240.12
aa(lp146
g2
ag3
aI0
aF17.94260597229004
aF0.17
aF-0.73
aF-0.31
aI-1523
aI2043
aI2231
aF109.48
aF439.76
aF287.04
aa(lp147
g2
ag3
aI0
aF18.06999897956848
aF0.13
aF-0.79
aF-0.4
aI6867
aI-2532
aI-3358
aF110.4
aF449.88
aF275.08
aa(lp148
g2
ag3
aI0
aF18.23685097694397
aF0.15
aF-0.8
aF-0.31
aI11766
aI1823
aI-6716
aF92.0
aF521.64
aF224.48
aa(lp149
g2
ag3
aI0
aF18.336874961853027
aF0.24
aF-0.81
aF-0.11
aI16533
aI6417
aI-10666
aF6.44
aF606.28
aF125.12
aa(lp150
g2
ag3
aI0
aF18.47631812095642
aF0.39
aF-0.73
aF0.2
aI16090
aI13098
aI-12331
aF-122.36
aF632.96
aF-31.28
aa(lp151
g2
ag3
aI0
aF18.636471033096313
aF0.55
aF-0.58
aF0.51
aI16543
aI6356
aI-10411
aF-211.6
aF568.56
aF-195.96
aa(lp152
g2
ag3
aI0
aF18.735924005508423
aF0.64
aF-0.39
aF0.78
aI13400
aI3418
aI-10254
aF-256.68
aF448.96
aF-300.84
aa(lp153
g2
ag3
aI0
aF18.836889028549194
aF0.69
aF-0.2
aF0.94
aI8607
aI3847
aI-6474
aF-253.92
aF321.08
aF-371.68
aa(lp154
g2
ag3
aI0
aF18.967868089675903
aF0.74
aF-0.11
aF1.06
aI3
aI1500
aI449
aF-236.44
aF272.32
aF-387.32
aa(lp155
g2
ag3
aI0
aF19.136894941329956
aF0.73
aF-0.08
aF1.13
aI-9478
aI-803
aI6622
aF-238.28
aF292.56
aF-387.32
aa(lp156
g2
ag3
aI0
aF19.23690390586853
aF0.68
aF-0.17
aF1.13
aI-18951
aI-3568
aI9288
aF-239.2
aF419.52
aF-339.48
aa(lp157
g2
ag3
aI0
aF19.336854934692383
aF0.63
aF-0.34
aF0.93
aI-22592
aI-8454
aI8946
aF-212.52
aF563.96
aF-207.0
aa(lp158
g2
ag3
aI0
aF19.450140953063965
aF0.53
aF-0.49
aF0.62
aI-18555
aI-10569
aI7213
aF-146.28
aF618.24
aF-13.8
aa(lp159
g2
ag3
aI0
aF19.56890296936035
aF0.43
aF-0.6
aF0.31
aI-12010
aI-8554
aI5318
aF-52.44
aF581.44
aF140.76
aa(lp160
g2
ag3
aI0
aF19.73608899116516
aF0.33
aF-0.72
aF-0.01
aI-6305
aI-1289
aI3745
aF24.84
aF519.8
aF227.24
aa(lp161
g2
ag3
aI0
aF19.83668303489685
aF0.29
aF-0.82
aF-0.27
aI421
aI690
aI1128
aF40.48
aF486.68
aF255.76
aa(lp162
g2
ag3
aI0
aF19.95771312713623
aF0.26
aF-0.82
aF-0.29
aI7457
aI-1005
aI-3461
aF41.4
aF506.92
aF236.44
aa(lp163
g2
ag3
aI0
aF20.070089101791382
aF0.28
aF-0.81
aF-0.19
aI13748
aI1399
aI-7953
aF3.68
aF575.0
aF169.28
aa(lp164
g2
ag3
aI0
aF20.236797094345093
aF0.4
aF-0.79
aF0.07
aI16537
aI7657
aI-10483
aF-94.76
aF623.76
aF43.24
aa(lp165
g2
ag3
aI0
aF20.352720975875854
aF0.57
aF-0.69
aF0.4
aI16856
aI9992
aI-10564
aF-189.52
aF598.92
aF-117.76
aa(lp166
g2
ag3
aI0
aF20.446463108062744
aF0.64
aF-0.51
aF0.68
aI14170
aI5974
aI-10688
aF-248.4
aF500.48
aF-255.76
aa(lp167
g2
ag3
aI0
aF20.568887948989868
aF0.7
aF-0.3
aF0.84
aI11185
aI4017
aI-9063
aF-268.64
aF370.76
aF-339.48
aa(lp168
g2
ag3
aI0
aF20.736776113510132
aF0.72
aF-0.11
aF0.97
aI5106
aI1485
aI-4716
aF-250.24
aF271.4
aF-376.28
aa(lp169
g2
ag3
aI0
aF20.836710929870605
aF0.76
aF-0.06
aF1.07
aI-4760
aI-510
aI3290
aF-246.56
aF259.44
aF-379.04
aa(lp170
g2
ag3
aI0
aF20.947577953338623
aF0.75
aF-0.09
aF1.11
aI-15059
aI-2014
aI10159
aF-253.92
aF335.8
aF-361.56
aa(lp171
g2
ag3
aI0
aF21.075232982635498
aF0.7
aF-0.24
aF1.01
aI-20908
aI-6957
aI10605
aF-238.28
aF494.96
aF-273.24
aa(lp172
g2
ag3
aI0
aF21.236788034439087
aF0.63
aF-0.43
aF0.79
aI-19407
aI-9446
aI9510
aF-185.84
aF605.36
aF-104.88
aa(lp173
g2
ag3
aI0
aF21.343998908996582
aF0.49
aF-0.55
aF0.47
aI-15982
aI-7239
aI7203
aF-96.6
aF609.96
aF71.76
aa(lp174
g2
ag3
aI0
aF21.467618942260742
aF0.39
aF-0.67
aF0.11
aI-10076
aI-2494
aI4460
aF-13.8
aF555.68
aF186.76
aa(lp175
g2
ag3
aI0
aF21.635452032089233
aF0.33
aF-0.75
aF-0.21
aI-2456
aI-1447
aI1042
aF20.24
aF496.8
aF241.96
aa(lp176
g2
ag3
aI0
aF21.735939979553223
aF0.28
aF-0.79
aF-0.28
aI6871
aI-604
aI-3421
aF28.52
aF502.32
aF240.12
aa(lp177
g2
ag3
aI0
aF21.836385011672974
aF0.31
aF-0.81
aF-0.18
aI12642
aI2200
aI-6720
aF-7.36
aF563.04
aF177.56
aa(lp178
g2
ag3
aI0
aF21.948957920074463
aF0.39
aF-0.81
aF0.03
aI15942
aI5599
aI-8304
aF-87.4
aF614.56
aF67.16
aa(lp179
g2
ag3
aI0
aF22.07254910469055
aF0.5
aF-0.71
aF0.32
aI16450
aI6673
aI-8164
aF-172.04
aF614.56
aF-80.96
aa(lp180
g2
ag3
aI0
aF22.23680090904236
aF0.6
aF-0.57
aF0.6
aI14976
aI4256
aI-7628
aF-222.64
aF552.0
aF-215.28
aa(lp181
g2
ag3
aI0
aF22.336756944656372
aF0.62
aF-0.36
aF0.79
aI12247
aI7152
aI-5758
aF-235.52
aF449.88
aF-325.68
aa(lp182
g2
ag3
aI0
aF22.467709064483643
aF0.65
aF-0.21
aF0.95
aI8543
aI977
aI-4035
aF-221.72
aF350.52
aF-390.08
aa(lp183
g2
ag3
aI0
aF22.636733055114746
aF0.68
aF-0.14
aF1.07
aI-279
aI355
aI-16
aF-218.96
aF316.48
aF-399.28
aa(lp184
g2
ag3
aI0
aF22.73677110671997
aF0.68
aF-0.12
aF1.12
aI-9608
aI-963
aI5580
aF-219.88
aF337.64
aF-394.68
aa(lp185
g2
ag3
aI0
aF22.837734937667847
aF0.65
aF-0.21
aF1.09
aI-16282
aI-2474
aI7604
aF-213.44
aF448.96
aF-342.24
aa(lp186
g2
ag3
aI0
aF22.953934907913208
aF0.62
aF-0.38
aF0.95
aI-18897
aI-6351
aI7503
aF-188.6
aF568.56
aF-226.32
aa(lp187
g2
ag3
aI0
aF23.067574977874756
aF0.56
aF-0.55
aF0.71
aI-17678
aI-8697
aI7484
aF-138.0
aF632.96
aF-60.72
aa(lp188
g2
ag3
aI0
aF23.236207962036133
aF0.44
aF-0.65
aF0.41
aI-14686
aI-4293
aI5943
aF-53.36
aF613.64
aF92.0
aa(lp189
g2
ag3
aI0
aF23.336708068847656
aF0.38
aF-0.74
aF0.09
aI-10881
aI-1603
aI3936
aF-2.76
aF546.48
aF199.64
aa(lp190
g2
ag3
aI0
aF23.447760105133057
aF0.31
aF-0.81
aF-0.2
aI-4743
aI-4397
aI1808
aF34.04
aF484.84
aF253.92
aa(lp191
g2
ag3
aI0
aF23.591450929641724
aF0.24
aF-0.82
aF-0.33
aI2528
aI-216
aI-756
aF65.32
aF469.2
aF264.96
aa(lp192
g2
ag3
aI0
aF23.736625909805298
aF0.25
aF-0.81
aF-0.32
aI9501
aI1123
aI-4196
aF43.24
aF513.36
aF231.84
aa(lp193
g2
ag3
aI0
aF23.835453033447266
aF0.28
aF-0.83
aF-0.18
aI16345
aI-247
aI-9754
aF-8.28
aF591.56
aF138.92
aa(lp194
g2
ag3
aI0
aF23.96156406402588
aF0.39
aF-0.77
aF0.1
aI15476
aI11487
aI-10159
aF-120.52
aF629.28
aF-0.92
aa(lp195
g2
ag3
aI0
aF24.13563895225525
aF0.54
aF-0.63
aF0.42
aI15422
aI4593
aI-8959
aF-200.56
aF589.72
aF-149.96
aa(lp196
g2
ag3
aI0
aF24.236659049987793
aF0.6
aF-0.42
aF0.67
aI14634
aI4196
aI-8713
aF-247.48
aF500.48
aF-264.96
aa(lp197
g2
ag3
aI0
aF24.336354970932007
aF0.66
aF-0.25
aF0.87
aI11412
aI5929
aI-6152
aF-255.76
aF439.76
aF-320.16
aa(lp198
g2
ag3
aI0
aF24.43783712387085
aF0.68
aF-0.13
aF0.98
aI6984
aI1142
aI-3779
aF-235.52
aF330.28
aF-386.4
aa(lp199
g2
ag3
aI0
aF24.58518695831299
aF0.7
aF-0.06
aF1.1
aI-2586
aI2581
aI2449
aF-218.04
aF274.16
aF-406.64
aa(lp200
g2
ag3
aI0
aF24.736663103103638
aF0.68
aF-0.08
aF1.17
aI-14093
aI-1799
aI7016
aF-208.84
aF333.04
aF-400.2
aa(lp201
g2
ag3
aI0
aF24.83641505241394
aF0.65
aF-0.21
aF1.12
aI-21594
aI-4607
aI9141
aF-204.24
aF487.6
aF-314.64
aa(lp202
g2
ag3
aI0
aF24.95887589454651
aF0.6
aF-0.39
aF0.87
aI-21836
aI-8663
aI8682
aF-158.24
aF611.8
aF-146.28
aa(lp203
g2
ag3
aI0
aF25.07504391670227
aF0.47
aF-0.52
aF0.57
aI-16780
aI-9099
aI7165
aF-80.96
aF625.6
aF42.32
aa.