(lp0
(lp1
S'Sandra'
p2
aS'bicep curls'
p3
aI0
aF0.00016808509826660156
aF0.18
aF-1.04
aF-0.12
aI-78
aI340
aI76
aF-197.8
aF544.64
aF74.52
aa(lp4
g2
ag3
aI0
aF0.230072021484375
aF0.2
aF-1.04
aF-0.13
aI-76
aI122
aI-207
aF-200.56
aF543.72
aF70.84
aa(lp5
g2
ag3
aI0
aF0.3624560832977295
aF0.22
aF-1.03
aF-0.13
aI-184
aI172
aI-155
aF-204.24
aF543.72
aF71.76
aa(lp6
g2
ag3
aI0
aF0.4813859462738037
aF0.22
aF-1.03
aF-0.12
aI-279
aI57
aI-857
aF-206.08
aF538.2
aF73.6
aa(lp7
g2
ag3
aI0
aF0.6348209381103516
aF0.22
aF-1.03
aF-0.13
aI-332
aI1221
aI-1549
aF-214.36
aF533.6
aF70.84
aa(lp8
g2
ag3
aI0
aF0.734807014465332
aF0.28
aF-1.02
aF-0.14
aI-739
aI3560
aI-4535
aF-243.8
aF516.12
aF58.88
aa(lp9
g2
ag3
aI0
aF0.8514010906219482
aF0.45
aF-1.01
aF-0.13
aI-693
aI4920
aI-9358
aF-299.92
aF460.0
aF35.88
aa(lp10
g2
ag3
aI0
aF0.9674561023712158
aF0.61
aF-0.97
aF-0.11
aI-671
aI2572
aI-15268
aF-364.32
aF359.72
aF11.96
aa(lp11
g2
ag3
aI0
aF1.0911810398101807
aF0.82
aF-0.82
aF-0.09
aI251
aI1864
aI-20782
aF-391.92
aF277.84
aF-6.44
aa(lp12
g2
ag3
aI0
aF1.2335219383239746
aF0.99
aF-0.55
aF-0.03
aI2689
aI2812
aI-23163
aF-395.6
aF68.08
aF-31.28
aa(lp13
g2
ag3
aI0
aF1.3346951007843018
aF1.02
aF-0.22
aF-0.01
aI3461
aI993
aI-22230
aF-314.64
aF-137.08
aF-48.76
aa(lp14
g2
ag3
aI0
aF1.4752781391143799
aF0.91
aF0.13
aF0.03
aI2489
aI312
aI-19085
aF-164.68
aF-282.44
aF-34.04
aa(lp15
g2
ag3
aI0
aF1.6337590217590332
aF0.76
aF0.4
aF0.01
aI2734
aI9
aI-14864
aF-15.64
aF-349.6
aF-14.72
aa(lp16
g2
ag3
aI0
aF1.7342720031738281
aF0.59
aF0.61
aF-0.03
aI2301
aI-1442
aI-11648
aF106.72
aF-353.28
aF11.04
aa(lp17
g2
ag3
aI0
aF1.8361790180206299
aF0.4
aF0.76
aF-0.08
aI1715
aI-1575
aI-9200
aF200.56
aF-330.28
aF28.52
aa(lp18
g2
ag3
aI0
aF1.965095043182373
aF0.19
aF0.81
aF-0.12
aI1377
aI-1127
aI-2857
aF265.88
aF-306.36
aF37.72
aa(lp19
g2
ag3
aI0
aF2.0899181365966797
aF0.12
aF0.8
aF-0.14
aI-1268
aI-207
aI10253
aF240.12
aF-313.72
aF39.56
aa(lp20
g2
ag3
aI0
aF2.2337870597839355
aF0.25
aF0.75
aF-0.12
aI-974
aI3393
aI21813
aF102.12
aF-348.68
aF25.76
aa(lp21
g2
ag3
aI0
aF2.3346099853515625
aF0.49
aF0.62
aF-0.02
aI-1929
aI2497
aI26708
aF-116.84
aF-303.6
aF6.44
aa(lp22
g2
ag3
aI0
aF2.4461820125579834
aF0.78
aF0.32
aF-0.17
aI-1742
aI524
aI25831
aF-299.0
aF-142.6
aF3.68
aa(lp23
g2
ag3
aI0
aF2.5698330402374268
aF0.98
aF-0.15
aF-0.08
aI1524
aI3263
aI25000
aF-359.72
aF-31.28
aF6.44
aa(lp24
g2
ag3
aI0
aF2.7348721027374268
aF0.77
aF-0.43
aF-0.04
aI-2239
aI-4654
aI24279
aF-393.76
aF206.08
aF5.52
aa(lp25
g2
ag3
aI0
aF2.8347690105438232
aF0.64
aF-0.84
aF-0.07
aI-2784
aI-2423
aI24145
aF-323.84
aF424.12
aF37.72
aa(lp26
g2
ag3
aI0
aF2.9462900161743164
aF0.56
aF-0.94
aF-0.1
aI478
aI2074
aI8804
aF-227.24
aF532.68
aF52.44
aa(lp27
g2
ag3
aI0
aF3.0661520957946777
aF0.52
aF-0.98
aF-0.11
aI274
aI1279
aI-3009
aF-192.28
aF563.04
aF41.4
aa(lp28
g2
ag3
aI0
aF3.234650135040283
aF0.65
aF-1.05
aF-0.09
aI1825
aI2840
aI-21602
aF-264.04
aF507.84
aF20.24
aa(lp29
g2
ag3
aI0
aF3.3340370655059814
aF0.89
aF-1.04
aF-0.06
aI2160
aI1756
aI-31947
aF-383.64
aF300.84
aF-11.04
aa(lp30
g2
ag3
aI0
aF3.4439539909362793
aF0.98
aF-0.72
aF-0.04
aI2123
aI-1603
aI-32398
aF-370.76
aF-12.88
aF-21.16
aa(lp31
g2
ag3
aI0
aF3.5637919902801514
aF0.92
aF-0.3
aF-0.0
aI1940
aI-1221
aI-29044
aF-201.48
aF-253.0
aF-9.2
aa(lp32
g2
ag3
aI0
aF3.7036750316619873
aF0.76
aF0.1
aF-0.04
aI2033
aI-2684
aI-22135
aF17.48
aF-348.68
aF11.96
aa(lp33
g2
ag3
aI0
aF3.8346970081329346
aF0.51
aF0.43
aF-0.07
aI1263
aI-3189
aI-15133
aF180.32
aF-337.64
aF25.76
aa(lp34
g2
ag3
aI0
aF3.9663829803466797
aF0.27
aF0.67
aF-0.1
aI71
aI-437
aI-9594
aF283.36
aF-297.16
aF23.0
aa(lp35
g2
ag3
aI0
aF4.1336281299591064
aF0.03
aF0.77
aF-0.12
aI575
aI540
aI-276
aF310.96
aF-277.84
aF30.36
aa(lp36
g2
ag3
aI0
aF4.234216928482056
aF0.02
aF0.8
aF-0.14
aI-391
aI-877
aI12573
aF295.32
aF-287.96
aF32.2
aa(lp37
g2
ag3
aI0
aF4.333745956420898
aF0.14
aF0.77
aF-0.14
aI110
aI1416
aI22463
aF181.24
aF-337.64
aF21.16
aa(lp38
g2
ag3
aI0
aF4.445007085800171
aF0.42
aF0.6
aF-0.11
aI1018
aI2802
aI28036
aF-31.28
aF-332.12
aF23.0
aa(lp39
g2
ag3
aI0
aF4.571238994598389
aF0.75
aF0.22
aF-0.16
aI1747
aI3978
aI28494
aF-257.6
aF-192.28
aF20.24
aa(lp40
g2
ag3
aI0
aF4.734827995300293
aF0.87
aF-0.09
aF-0.05
aI-92
aI-831
aI28424
aF-378.12
aF46.0
aF28.52
aa(lp41
g2
ag3
aI0
aF4.834772109985352
aF0.93
aF-0.58
aF-0.1
aI345
aI1521
aI23354
aF-377.2
aF289.8
aF37.72
aa(lp42
g2
ag3
aI0
aF4.934351921081543
aF0.74
aF-0.88
aF-0.13
aI-980
aI-1527
aI20119
aF-277.84
aF472.88
aF46.0
aa(lp43
g2
ag3
aI0
aF5.045161008834839
aF0.59
aF-0.95
aF-0.13
aI626
aI796
aI8213
aF-213.44
aF544.64
aF42.32
aa(lp44
g2
ag3
aI0
aF5.17994499206543
aF0.52
aF-0.99
aF-0.15
aI202
aI1206
aI584
aF-194.12
aF559.36
aF41.4
aa(lp45
g2
ag3
aI0
aF5.334628105163574
aF0.52
aF-1.04
aF-0.16
aI363
aI1464
aI-11375
aF-202.4
aF557.52
aF44.16
aa(lp46
g2
ag3
aI0
aF5.4347100257873535
aF0.67
aF-1.1
aF-0.13
aI733
aI1722
aI-25236
aF-293.48
aF467.36
aF33.12
aa(lp47
g2
ag3
aI0
aF5.558743000030518
aF0.88
aF-0.93
aF-0.09
aI687
aI942
aI-31522
aF-394.68
aF233.68
aF7.36
aa(lp48
g2
ag3
aI0
aF5.678942918777466
aF0.93
aF-0.55
aF-0.05
aI-605
aI-1820
aI-29503
aF-348.68
aF-64.4
aF0.0
aa(lp49
g2
ag3
aI0
aF5.83470892906189
aF0.87
aF-0.17
aF-0.06
aI-795
aI-1250
aI-25198
aF-175.72
aF-273.24
aF-0.92
aa(lp50
g2
ag3
aI0
aF5.93743109703064
aF0.73
aF0.22
aF-0.08
aI166
aI-1494
aI-18691
aF12.88
aF-348.68
aF1.84
aa(lp51
g2
ag3
aI0
aF6.050127983093262
aF0.48
aF0.52
aF-0.09
aI-416
aI-2339
aI-13285
aF161.92
aF-347.76
aF2.76
aa(lp52
g2
ag3
aI0
aF6.1725311279296875
aF0.25
aF0.72
aF-0.12
aI9
aI-624
aI-6748
aF250.24
aF-321.08
aF2.76
aa(lp53
g2
ag3
aI0
aF6.334702014923096
aF0.12
aF0.79
aF-0.13
aI1
aI1204
aI2880
aF262.2
aF-310.96
aF6.44
aa(lp54
g2
ag3
aI0
aF6.4346349239349365
aF0.14
aF0.8
aF-0.1
aI-388
aI953
aI14738
aF230.92
aF-326.6
aF5.52
aa(lp55
g2
ag3
aI0
aF6.533469915390015
aF0.29
aF0.71
aF-0.11
aI880
aI2704
aI24000
aF87.4
aF-356.04
aF1.84
aa(lp56
g2
ag3
aI0
aF6.641088962554932
aF0.65
aF0.4
aF-0.18
aI3822
aI4079
aI28748
aF-135.24
aF-298.08
aF3.68
aa(lp57
g2
ag3
aI0
aF6.763864994049072
aF0.84
aF0.11
aF-0.06
aI3408
aI-1441
aI30840
aF-325.68
aF-98.44
aF21.16
aa(lp58
g2
ag3
aI0
aF6.934720993041992
aF0.87
aF-0.44
aF-0.09
aI3144
aI3314
aI28457
aF-381.8
aF188.6
aF60.72
aa(lp59
g2
ag3
aI0
aF7.034646987915039
aF0.8
aF-0.79
aF-0.1
aI-1278
aI2760
aI26515
aF-314.64
aF419.52
aF58.88
aa(lp60
g2
ag3
aI0
aF7.138880968093872
aF0.57
aF-0.98
aF-0.14
aI1305
aI4060
aI8944
aF-214.36
aF539.12
aF62.56
aa(lp61
g2
ag3
aI0
aF7.2672340869903564
aF0.45
aF-0.99
aF-0.15
aI174
aI497
aI5305
aF-165.6
aF576.84
aF49.68
aa(lp62
g2
ag3
aI0
aF7.4346160888671875
aF0.43
aF-1.02
aF-0.15
aI-206
aI2751
aI-5597
aF-178.48
aF574.08
aF41.4
aa(lp63
g2
ag3
aI0
aF7.533360004425049
aF0.51
aF-1.08
aF-0.14
aI1161
aI5718
aI-19150
aF-219.88
aF544.64
aF29.44
aa(lp64
g2
ag3
aI0
aF7.633711099624634
aF0.78
aF-1.09
aF-0.04
aI4727
aI7597
aI-30607
aF-348.68
aF398.36
aF-32.2
aa(lp65
g2
ag3
aI0
aF7.750262975692749
aF0.95
aF-0.78
aF0.05
aI7654
aI970
aI-32255
aF-400.2
aF100.28
aF-103.96
aa(lp66
g2
ag3
aI0
aF7.895174980163574
aF0.92
aF-0.34
aF0.1
aI6212
aI-3964
aI-28026
aF-284.28
aF-185.84
aF-92.0
aa(lp67
g2
ag3
aI0
aF8.034691095352173
aF0.82
aF0.05
aF0.06
aI3993
aI-4471
aI-21954
aF-86.48
aF-330.28
aF-36.8
aa(lp68
g2
ag3
aI0
aF8.134581089019775
aF0.59
aF0.39
aF-0.02
aI1748
aI-4863
aI-14297
aF92.92
aF-356.04
aF-3.68
aa(lp69
g2
ag3
aI0
aF8.269938945770264
aF0.34
aF0.66
aF-0.06
aI310
aI-719
aI-8831
aF206.08
aF-334.88
aF6.44
aa(lp70
g2
ag3
aI0
aF8.434494018554688
aF0.16
aF0.78
aF-0.1
aI257
aI978
aI-1679
aF253.92
aF-310.04
aF14.72
aa(lp71
g2
ag3
aI0
aF8.53463101387024
aF0.12
aF0.81
aF-0.1
aI-1831
aI-932
aI9672
aF229.08
aF-326.6
aF10.12
aa(lp72
g2
ag3
aI0
aF8.63457202911377
aF0.25
aF0.76
aF-0.1
aI-1126
aI-1080
aI21011
aF92.92
aF-357.88
aF-10.12
aa(lp73
g2
ag3
aI0
aF8.767564058303833
aF0.43
aF0.58
aF-0.11
aI1270
aI-1423
aI29048
aF-124.2
aF-305.44
aF-11.04
aa(lp74
g2
ag3
aI0
aF8.934613943099976
aF0.75
aF0.2
aF-0.06
aI4129
aI-1377
aI30358
aF-322.92
aF-104.88
aF10.12
aa(lp75
g2
ag3
aI0
aF9.034575939178467
aF0.78
aF-0.26
aF-0.12
aI2077
aI-3407
aI28860
aF-377.2
aF33.12
aF13.8
aa(lp76
g2
ag3
aI0
aF9.133501052856445
aF0.73
aF-0.69
aF-0.16
aI1632
aI-546
aI29795
aF-368.92
aF307.28
aF46.92
aa(lp77
g2
ag3
aI0
aF9.239970922470093
aF0.45
aF-0.96
aF-0.21
aI2354
aI2928
aI10541
aF-239.2
aF517.04
aF64.4
aa(lp78
g2
ag3
aI0
aF9.382769107818604
aF0.41
aF-0.97
aF-0.19
aI883
aI939
aI7007
aF-181.24
aF570.4
aF43.24
aa(lp79
g2
ag3
aI0
aF9.534183979034424
aF0.39
aF-1.0
aF-0.18
aI-88
aI1155
aI-1822
aF-148.12
aF588.8
aF34.04
aa(lp80
g2
ag3
aI0
aF9.634249925613403
aF0.37
aF-1.05
aF-0.16
aI-680
aI-820
aI-13298
aF-196.88
aF563.04
aF34.04
aa(lp81
g2
ag3
aI0
aF9.7449369430542
aF0.58
aF-1.14
aF-0.13
aI-359
aI3396
aI-25140
aF-304.52
aF449.88
aF30.36
aa(lp82
g2
ag3
aI0
aF9.860069990158081
aF0.84
aF-0.97
aF-0.11
aI1519
aI3616
aI-31939
aF-394.68
aF190.44
aF-9.2
aa(lp83
g2
ag3
aI0
aF10.00776195526123
aF0.91
aF-0.58
aF-0.05
aI1502
aI-517
aI-29217
aF-333.04
aF-99.36
aF-18.4
aa(lp84
g2
ag3
aI0
aF10.135087013244629
aF0.92
aF-0.18
aF-0.05
aI1228
aI-2493
aI-24441
aF-161.0
aF-287.04
aF-9.2
aa(lp85
g2
ag3
aI0
aF10.291467905044556
aF0.74
aF0.19
aF-0.06
aI42
aI-2074
aI-17622
aF16.56
aF-352.36
aF0.92
aa(lp86
g2
ag3
aI0
aF10.434576988220215
aF0.53
aF0.51
aF-0.08
aI-1119
aI-3013
aI-12813
aF149.96
aF-348.68
aF2.76
aa(lp87
g2
ag3
aI0
aF10.533713102340698
aF0.3
aF0.72
aF-0.07
aI-489
aI-582
aI-6745
aF202.4
aF-336.72
aF-5.52
aa(lp88
g2
ag3
aI0
aF10.634429931640625
aF0.17
aF0.8
aF-0.1
aI-102
aI238
aI3540
aF246.56
aF-319.24
aF-11.04
aa(lp89
g2
ag3
aI0
aF10.734081983566284
aF0.17
aF0.8
aF-0.06
aI770
aI-930
aI15886
aF194.12
aF-340.4
aF-10.12
aa(lp90
g2
ag3
aI0
aF10.898919105529785
aF0.34
aF0.69
aF-0.09
aI2810
aI612
aI26229
aF30.36
aF-355.12
aF-1.84
aa(lp91
g2
ag3
aI0
aF11.03461503982544
aF0.63
aF0.36
aF-0.12
aI4425
aI3787
aI28767
aF-193.2
aF-259.44
aF15.64
aa(lp92
g2
ag3
aI0
aF11.134212017059326
aF0.82
aF0.04
aF-0.0
aI1509
aI-3274
aI30461
aF-355.12
aF-31.28
aF25.76
aa(lp93
g2
ag3
aI0
aF11.242542028427124
aF0.92
aF-0.5
aF-0.12
aI2638
aI-194
aI25074
aF-383.64
aF233.68
aF36.8
aa(lp94
g2
ag3
aI0
aF11.361177921295166
aF0.72
aF-0.87
aF-0.05
aI755
aI-1434
aI26774
aF-291.64
aF457.24
aF42.32
aa(lp95
g2
ag3
aI0
aF11.489028930664062
aF0.54
aF-1.0
aF-0.12
aI1206
aI4251
aI9585
aF-201.48
aF557.52
aF38.64
aa(lp96
g2
ag3
aI0
aF11.63339900970459
aF0.43
aF-1.01
aF-0.14
aI855
aI-421
aI4535
aF-146.28
aF592.48
aF32.2
aa(lp97
g2
ag3
aI0
aF11.747443914413452
aF0.43
aF-1.03
aF-0.16
aI8
aI1308
aI-5478
aF-146.28
aF590.64
aF27.6
aa(lp98
g2
ag3
aI0
aF11.867670059204102
aF0.48
aF-1.08
aF-0.14
aI-213
aI1692
aI-17777
aF-198.72
aF563.04
aF23.0
aa(lp99
g2
ag3
aI0
aF12.034572124481201
aF0.65
aF-1.14
aF-0.09
aI-755
aI1028
aI-28454
aF-323.84
aF427.8
aF15.64
aa(lp100
g2
ag3
aI0
aF12.134190082550049
aF0.84
aF-0.89
aF-0.09
aI-915
aI-355
aI-32456
aF-394.68
aF152.72
aF0.0
aa(lp101
g2
ag3
aI0
aF12.234230041503906
aF0.91
aF-0.48
aF-0.06
aI-578
aI87
aI-28197
aF-307.28
aF-138.92
aF-9.2
aa(lp102
g2
ag3
aI0
aF12.343668937683105
aF0.8
aF-0.05
aF-0.02
aI-178
aI1451
aI-24212
aF-120.52
aF-311.88
aF-23.0
aa(lp103
g2
ag3
aI0
aF12.487760066986084
aF0.62
aF0.33
aF-0.03
aI-708
aI-3217
aI-16348
aF55.2
aF-360.64
aF-23.92
aa(lp104
g2
ag3
aI0
aF12.633430004119873
aF0.38
aF0.61
aF-0.04
aI-585
aI-5229
aI-9638
aF178.48
aF-349.6
aF-27.6
aa(lp105
g2
ag3
aI0
aF12.734511137008667
aF0.19
aF0.77
aF-0.04
aI42
aI-1098
aI1132
aF227.24
aF-335.8
aF-38.64
aa(lp106
g2
ag3
aI0
aF12.834609985351562
aF0.19
aF0.79
aF-0.05
aI1731
aI761
aI12288
aF166.52
aF-349.6
aF-33.12
aa(lp107
g2
ag3
aI0
aF12.981410026550293
aF0.33
aF0.72
aF-0.08
aI3036
aI1383
aI21964
aF10.12
aF-356.96
aF-14.72
aa(lp108
g2
ag3
aI0
aF13.134208917617798
aF0.51
aF0.46
aF-0.09
aI4392
aI1525
aI29657
aF-96.6
aF-322.0
aF-5.52
aa(lp109
g2
ag3
aI0
aF13.234359979629517
aF0.9
aF-0.03
aF-0.11
aI4164
aI6495
aI28700
aF-306.36
aF-139.84
aF8.28
aa(lp110
g2
ag3
aI0
aF13.340102910995483
aF0.79
aF-0.36
aF-0.06
aI-617
aI-4964
aI28357
aF-397.44
aF127.88
aF13.8
aa(lp111
g2
ag3
aI0
aF13.466381072998047
aF0.64
aF-0.87
aF-0.07
aI1023
aI-4366
aI28323
aF-333.96
aF399.28
aF46.0
aa(lp112
g2
ag3
aI0
aF13.634473085403442
aF0.56
aF-0.98
aF-0.06
aI2324
aI6295
aI11273
aF-222.64
aF543.72
aF53.36
aa(lp113
g2
ag3
aI0
aF13.734393119812012
aF0.45
aF-1.02
aF-0.1
aI228
aI1289
aI3534
aF-158.24
aF586.96
aF34.04
aa(lp114
g2
ag3
aI0
aF13.847381114959717
aF0.43
aF-1.04
aF-0.12
aI-502
aI-1257
aI-6829
aF-160.08
aF586.04
aF30.36
aa(lp115
g2
ag3
aI0
aF13.961333990097046
aF0.47
aF-1.11
aF-0.13
aI-797
aI-1040
aI-19034
aF-244.72
aF524.4
aF35.88
aa(lp116
g2
ag3
aI0
aF14.134495973587036
aF0.68
aF-1.15
aF-0.14
aI-2699
aI161
aI-28432
aF-359.72
aF343.16
aF34.96
aa(lp117
g2
ag3
aI0
aF14.233171939849854
aF0.81
aF-0.84
aF-0.13
aI-2607
aI1566
aI-30294
aF-377.2
aF51.52
aF23.0
aa(lp118
g2
ag3
aI0
aF14.342359066009521
aF0.88
aF-0.43
aF-0.11
aI-1604
aI121
aI-27108
aF-259.44
aF-200.56
aF0.92
aa(lp119
g2
ag3
aI0
aF14.466228008270264
aF0.82
aF0.01
aF-0.09
aI-634
aI1014
aI-22922
aF-71.76
aF-332.12
aF-18.4
aa(lp120
g2
ag3
aI0
aF14.63435411453247
aF0.65
aF0.36
aF-0.08
aI-1359
aI-5813
aI-17186
aF101.2
aF-360.64
aF-21.16
aa(lp121
g2
ag3
aI0
aF14.734518051147461
aF0.33
aF0.62
aF-0.1
aI-2522
aI-5919
aI-8468
aF170.2
aF-351.44
aF-31.28
aa(lp122
g2
ag3
aI0
aF14.834990978240967
aF0.2
aF0.75
aF-0.07
aI483
aI200
aI4734
aF235.52
aF-333.04
aF-53.36
aa(lp123
g2
ag3
aI0
aF14.952578067779541
aF0.25
aF0.75
aF-0.08
aI3990
aI514
aI16940
aF171.12
aF-356.04
aF-49.68
aa(lp124
g2
ag3
aI0
aF15.09522294998169
aF0.39
aF0.64
aF-0.1
aI5737
aI364
aI26315
aF4.6
aF-352.36
aF-14.72
aa(lp125
g2
ag3
aI0
aF15.2345609664917
aF0.79
aF0.3
aF-0.25
aI5997
aI-1279
aI28264
aF-210.68
aF-235.52
aF24.84
aa(lp126
g2
ag3
aI0
aF15.334383964538574
aF0.98
aF-0.19
aF-0.32
aI6682
aI1374
aI29865
aF-356.04
aF6.44
aF63.48
aa(lp127
g2
ag3
aI0
aF15.448856115341187
aF0.86
aF-0.67
aF-0.22
aI3588
aI341
aI32752
aF-366.16
aF302.68
aF63.48
aa(lp128
g2
ag3
aI0
aF15.567476987838745
aF0.51
aF-0.96
aF-0.29
aI2250
aI4988
aI12612
aF-250.24
aF512.44
aF56.12
aa(lp129
g2
ag3
aI0
aF15.734332084655762
aF0.45
aF-1.01
aF-0.24
aI998
aI-36
aI9388
aF-172.96
aF575.92
aF32.2
aa(lp130
g2
ag3
aI0
aF15.83434796333313
aF0.44
aF-1.01
aF-0.19
aI-152
aI-3
aI-40
aF-148.12
aF593.4
aF30.36
aa(lp131
g2
ag3
aI0
aF15.942477941513062
aF0.45
aF-1.06
aF-0.21
aI155
aI-1019
aI-12224
aF-167.44
aF583.28
aF26.68
aa(lp132
g2
ag3
aI0
aF16.077336072921753
aF0.65
aF-1.14
aF-0.18
aI-428
aI269
aI-25850
aF-265.88
aF505.08
aF27.6
aa(lp133
g2
ag3
aI0
aF16.234237909317017
aF0.87
aF-1.06
aF-0.17
aI-2225
aI778
aI-32736
aF296.24
aF2133.48
aF-14602.24
aa(lp134
g2
ag3
aI0
aF16.334415912628174
aF0.92
aF-0.63
aF-0.14
aI-1421
aI51
aI-30799
aF-354.2
aF-51.52
aF-1.84
aa(lp135
g2
ag3
aI0
aF16.44763493537903
aF0.84
aF-0.18
aF-0.09
aI-2631
aI1518
aI-26080
aF-183.08
aF-272.32
aF-13.8
aa(lp136
g2
ag3
aI0
aF16.592565059661865
aF0.65
aF0.23
aF-0.08
aI-1252
aI-2226
aI-19426
aF23.0
aF-360.64
aF-30.36
aa(lp137
g2
ag3
aI0
aF16.73434591293335
aF0.38
aF0.55
aF-0.05
aI-748
aI-3822
aI-11866
aF170.2
aF-352.36
aF-35.88
aa(lp138
g2
ag3
aI0
aF16.833820104599
aF0.15
aF0.73
aF-0.1
aI-27
aI-1444
aI-2260
aF252.08
aF-324.76
aF-41.4
aa(lp139
g2
ag3
aI0
aF16.955270051956177
aF0.12
aF0.78
aF-0.09
aI715
aI582
aI11263
aF230.0
aF-332.12
aF-41.4
aa(lp140
g2
ag3
aI0
aF17.078829050064087
aF0.21
aF0.76
aF-0.08
aI2041
aI990
aI20904
aF98.44
aF-362.48
aF-35.88
aa(lp141
g2
ag3
aI0
aF17.234085083007812
aF0.4
aF0.6
aF-0.08
aI2501
aI-270
aI27423
aF-111.32
aF-313.72
aF-19.32
aa(lp142
g2
ag3
aI0
aF17.334397077560425
aF0.77
aF0.19
aF-0.12
aI3600
aI-995
aI28408
aF-304.52
aF-138.92
aF7.36
aa(lp143
g2
ag3
aI0
aF17.434464931488037
aF0.8
aF-0.17
aF-0.12
aI4043
aI-243
aI28279
aF-389.16
aF123.28
aF42.32
aa(lp144
g2
ag3
aI0
aF17.563926935195923
aF0.86
aF-0.67
aF-0.17
aI4722
aI-1744
aI27248
aF-370.76
aF261.28
aF64.4
aa(lp145
g2
ag3
aI0
aF17.734381914138794
aF0.64
aF-0.91
aF-0.2
aI3015
aI754
aI14868
aF-276.0
aF481.16
aF57.04
aa(lp146
g2
ag3
aI0
aF17.83437204360962
aF0.58
aF-0.98
aF-0.17
aI795
aI2422
aI6174
aF-204.24
aF558.44
aF34.96
aa(lp147
g2
ag3
aI0
aF17.94882607460022
aF0.52
aF-1.02
aF-0.19
aI-545
aI-2826
aI-5348
aF-180.32
aF573.16
aF28.52
aa(lp148
g2
ag3
aI0
aF18.065149068832397
aF0.52
aF-1.07
aF-0.19
aI-2735
aI138
aI-17707
aF-242.88
aF529.0
aF44.16
aa(lp149
g2
ag3
aI0
aF18.233613967895508
aF0.68
aF-1.09
aF-0.17
aI-4594
aI4395
aI-28452
aF-354.2
aF356.96
aF41.4
aa(lp150
g2
ag3
aI0
aF18.334367036819458
aF0.86
aF-0.8
aF-0.15
aI-2206
aI3368
aI-31018
aF-385.48
aF65.32
aF2.76
aa(lp151
g2
ag3
aI0
aF18.45518708229065
aF0.9
aF-0.37
aF-0.11
aI-850
aI1405
aI-28668
aF-264.96
aF-199.64
aF-23.0
aa(lp152
g2
ag3
aI0
aF18.59622097015381
aF0.72
aF0.08
aF-0.08
aI-1632
aI-2465
aI-23652
aF-59.8
aF-341.32
aF-32.2
aa(lp153
g2
ag3
aI0
aF18.734276056289673
aF0.53
aF0.41
aF-0.09
aI-531
aI-1964
aI-16434
aF115.92
aF-359.72
aF-31.28
aa(lp154
g2
ag3
aI0
aF18.834269046783447
aF0.29
aF0.64
aF-0.13
aI-1006
aI-1201
aI-7988
aF222.64
aF-333.96
aF-36.8
aa(lp155
g2
ag3
aI0
aF18.953835010528564
aF0.15
aF0.77
aF-0.09
aI-1158
aI1083
aI3596
aF242.88
aF-327.52
aF-41.4
aa(lp156
g2
ag3
aI0
aF19.06523609161377
aF0.19
aF0.77
aF-0.08
aI1792
aI1890
aI16483
aF145.36
aF-352.36
aF-37.72
aa(lp157
g2
ag3
aI0
aF19.23329496383667
aF0.37
aF0.67
aF-0.08
aI3107
aI2014
aI25966
aF57.96
aF-360.64
aF-28.52
aa(lp158
g2
ag3
aI0
aF19.334192037582397
aF0.66
aF0.39
aF-0.08
aI4015
aI-722
aI28441
aF-166.52
aF-287.04
aF-10.12
aa(lp159
g2
ag3
aI0
aF19.43501305580139
aF0.86
aF0.02
aF-0.1
aI3399
aI-5030
aI29156
aF-335.8
aF-80.04
aF19.32
aa(lp160
g2
ag3
aI0
aF19.555073022842407
aF0.9
aF-0.54
aF-0.2
aI4062
aI-1008
aI25399
aF-381.8
aF185.84
aF60.72
aa(lp161
g2
ag3
aI0
aF19.707624912261963
aF0.72
aF-0.9
aF-0.17
aI2914
aI13
aI23934
aF-309.12
aF420.44
aF78.2
aa(lp162
g2
ag3
aI0
aF19.834331035614014
aF0.52
aF-1.0
aF-0.19
aI1843
aI5553
aI9001
aF-211.6
aF544.64
aF56.12
aa(lp163
g2
ag3
aI0
aF19.93415093421936
aF0.44
aF-1.0
aF-0.19
aI235
aI2613
aI3958
aF-168.36
aF581.44
aF34.96
aa(lp164
g2
ag3
aI0
aF20.062509059906006
aF0.4
aF-1.03
aF-0.18
aI-544
aI-1219
aI-5908
aF-175.72
aF579.6
aF33.12
aa(lp165
g2
ag3
aI0
aF20.23450493812561
aF0.48
aF-1.08
aF-0.16
aI-1149
aI-233
aI-18095
aF-253.92
aF513.36
aF36.8
aa(lp166
g2
ag3
aI0
aF20.33438205718994
aF0.66
aF-1.1
aF-0.15
aI-2207
aI597
aI-26994
aF-364.32
aF335.8
aF33.12
aa(lp167
g2
ag3
aI0
aF20.4362530708313
aF0.84
aF-0.83
aF-0.12
aI-1346
aI3040
aI-29481
aF-386.4
aF51.52
aF10.12
aa(lp168
g2
ag3
aI0
aF20.55636501312256
aF0.9
aF-0.44
aF-0.1
aI-935
aI1353
aI-26589
aF-270.48
aF-187.68
aF-16.56
aa(lp169
g2
ag3
aI0
aF20.677557945251465
aF0.84
aF-0.0
aF-0.05
aI669
aI-1668
aI-21664
aF-92.92
aF-325.68
aF-16.56
aa(lp170
g2
ag3
aI0
aF20.834371089935303
aF0.67
aF0.33
aF-0.07
aI-1585
aI-4336
aI-14917
aF-7.36
aF-350.52
aF-12.88
aa(lp171
g2
ag3
aI0
aF20.952829122543335
aF0.43
aF0.61
aF-0.07
aI-3290
aI-4693
aI-9820
aF121.44
aF-356.96
aF-23.92
aa(lp172
g2
ag3
aI0
aF21.070039987564087
aF0.24
aF0.79
aF-0.02
aI-2814
aI321
aI-3029
aF196.88
aF-344.08
aF-51.52
aa(lp173
g2
ag3
aI0
aF21.234246969223022
aF0.18
aF0.83
aF-0.02
aI132
aI3290
aI7770
aF201.48
aF-342.24
aF-59.8
aa(lp174
g2
ag3
aI0
aF21.333406925201416
aF0.29
aF0.79
aF0.01
aI832
aI2644
aI17329
aF111.32
aF-364.32
aF-58.88
aa(lp175
g2
ag3
aI0
aF21.434327125549316
aF0.5
aF0.58
aF-0.05
aI4366
aI-344
aI26356
aF-69.92
aF-341.32
aF-49.68
aa(lp176
g2
ag3
aI0
aF21.55379009246826
aF0.68
aF0.31
aF-0.0
aI1599
aI-6992
aI29317
aF-272.32
aF-190.44
aF-16.56
aa(lp177
g2
ag3
aI0
aF21.69384002685547
aF0.86
aF-0.19
aF-0.12
aI1626
aI-572
aI28439
aF-383.64
aF54.28
aF21.16
aa(lp178
g2
ag3
aI0
aF21.8338041305542
aF0.82
aF-0.64
aF-0.14
aI1945
aI1266
aI29051
aF-368.92
aF325.68
aF28.52
aa(lp179
g2
ag3
aI0
aF21.943850994110107
aF0.54
aF-0.94
aF-0.17
aI1451
aI-84
aI16051
aF-242.88
aF521.64
aF36.8
aa(lp180
g2
ag3
aI0
aF22.058897018432617
aF0.49
aF-0.97
aF-0.16
aI778
aI1634
aI6604
aF-189.52
aF571.32
aF20.24
aa(lp181
g2
ag3
aI0
aF22.232872009277344
aF0.49
aF-1.0
aF-0.15
aI33
aI74
aI-3059
aF-172.04
aF582.36
aF16.56
aa(lp182
g2
ag3
aI0
aF22.334367990493774
aF0.52
aF-1.07
aF-0.14
aI-596
aI-1558
aI-14599
aF-202.4
aF559.36
aF15.64
aa(lp183
g2
ag3
aI0
aF22.446460962295532
aF0.65
aF-1.11
aF-0.12
aI-1774
aI-1567
aI-24735
aF-303.6
aF450.8
aF25.76
aa(lp184
g2
ag3
aI0
aF22.568653106689453
aF0.87
aF-0.95
aF-0.17
aI-2524
aI156
aI-30867
aF-386.4
aF214.36
aF23.92
aa(lp185
g2
ag3
aI0
aF22.734223127365112
aF0.87
aF-0.55
aF-0.09
aI-2469
aI-481
aI-28664
aF-341.32
aF-77.28
aF7.36
aa(lp186
g2
ag3
aI0
aF22.834331035614014
aF0.83
aF-0.12
aF-0.08
aI-1678
aI-116
aI-25007
aF-173.88
aF-280.6
aF-11.04
aa(lp187
g2
ag3
aI0
aF22.934298992156982
aF0.66
aF0.26
aF-0.07
aI-1310
aI-3443
aI-18910
aF16.56
aF-357.88
aF-18.4
aa(lp188
g2
ag3
aI0
aF23.048232078552246
aF0.38
aF0.56
aF-0.07
aI-2703
aI-5253
aI-11414
aF172.96
aF-347.76
aF-29.44
aa(lp189
g2
ag3
aI0
aF23.175097942352295
aF0.23
aF0.71
aF-0.07
aI237
aI-595
aI3796
aF223.56
aF-333.04
aF-46.92
aa(lp190
g2
ag3
aI0
aF23.333516120910645
aF0.23
aF0.73
aF-0.07
aI3480
aI2270
aI16603
aF144.44
aF-357.88
aF-35.88
aa(lp191
g2
ag3
aI0
aF23.434202909469604
aF0.37
aF0.64
aF-0.07
aI4335
aI1983
aI26785
aF-45.08
aF-340.4
aF-12.88
aa(lp192
g2
ag3
aI0
aF23.573975086212158
aF0.72
aF0.34
aF-0.09
aI4557
aI-1300
aI28570
aF-264.04
aF-192.28
aF13.8
aa(lp193
g2
ag3
aI0
aF23.734211921691895
aF0.77
aF-0.06
aF-0.13
aI3565
aI-2510
aI28641
aF-373.52
aF56.12
aF43.24
aa(lp194
g2
ag3
aI0
aF23.83413004875183
aF0.79
aF-0.54
aF-0.16
aI5028
aI-1838
aI27454
aF-352.36
aF322.92
aF83.72
aa(lp195
g2
ag3
aI0
aF23.9342360496521
aF0.52
aF-0.93
aF-0.11
aI4275
aI10
aI21704
aF-295.32
aF437.92
aF86.48
aa(lp196
g2
ag3
aI0
aF24.03769302368164
aF0.45
aF-0.99
aF-0.11
aI864
aI7541
aI7648
aF-203.32
aF553.84
aF52.44
aa(lp197
g2
ag3
aI0
aF24.185089111328125
aF0.45
aF-1.01
aF-0.11
aI-28
aI681
aI-2550
aF-177.56
aF577.76
aF26.68
aa(lp198
g2
ag3
aI0
aF24.33422303199768
aF0.48
aF-1.08
aF-0.13
aI-461
aI-1170
aI-16315
aF-218.96
aF547.4
aF33.12
aa(lp199
g2
ag3
aI0
aF24.43420696258545
aF0.65
aF-1.15
aF-0.15
aI-2537
aI333
aI-26760
aF-329.36
aF408.48
aF36.8
aa(lp200
g2
ag3
aI0
aF24.552551984786987
aF0.84
aF-0.9
aF-0.16
aI-2850
aI1547
aI-30934
aF-388.24
aF136.16
aF14.72
aa(lp201
g2
ag3
aI0
aF24.677716970443726
aF0.88
aF-0.47
aF-0.07
aI-2786
aI790
aI-27704
aF-307.28
aF-143.52
aF-11.04
aa(lp202
g2
ag3
aI0
aF24.83369493484497
aF0.79
aF-0.05
aF-0.07
aI-703
aI-655
aI-24509
aF-130.64
aF-312.8
aF-35.88
aa(lp203
g2
ag3
aI0
aF24.94292902946472
aF0.65
aF0.32
aF-0.05
aI-45
aI-2414
aI-16508
aF49.68
aF-361.56
aF-36.8
aa(lp204
g2
ag3
aI0
aF25.07277798652649
aF0.41
aF0.6
aF-0.05
aI-1239
aI-6528
aI-10446
aF171.12
aF-348.68
aF-42.32
aa.