(lp1
(lp2
S'Morgan'
p3
aS'shoulder'
p4
aI0
aF0.00015592575073242188
aF-0.070000000000000007
aF-1.02
aF-0.14999999999999999
aI49
aI59
aI45
aF274.16000000000003
aF621.91999999999996
aF-138
aa(lp5
g3
ag4
aI0
aF0.20261383056640625
aF-0.070000000000000007
aF-1.02
aF-0.14999999999999999
aI198
aI40
aI57
aF269.56
aF622.84000000000003
aF-137.08000000000001
aa(lp6
g3
ag4
aI0
aF0.33524799346923828
aF-0.059999999999999998
aF-1.03
aF-0.14999999999999999
aI271
aI178
aI-104
aF272.31999999999999
aF622.84000000000003
aF-139.84
aa(lp7
g3
ag4
aI0
aF0.45145988464355469
aF-0.059999999999999998
aF-1.03
aF-0.14000000000000001
aI251
aI196
aI-102
aF271.39999999999998
aF624.67999999999995
aF-141.68000000000001
aa(lp8
g3
ag4
aI0
aF0.63242793083190918
aF-0.050000000000000003
aF-1.03
aF-0.14000000000000001
aI286
aI340
aI18
aF272.31999999999999
aF625.60000000000002
aF-142.59999999999999
aa(lp9
g3
ag4
aI0
aF0.72214698791503906
aF-0.059999999999999998
aF-1.04
aF-0.13
aI96
aI-398
aI-131
aF270.48000000000002
aF626.51999999999998
aF-144.44
aa(lp10
g3
ag4
aI0
aF0.82132792472839355
aF-0.059999999999999998
aF-1.04
aF-0.13
aI148
aI65
aI-206
aF266.80000000000001
aF625.60000000000002
aF-147.19999999999999
aa(lp11
g3
ag4
aI0
aF0.94539093971252441
aF-0.059999999999999998
aF-1.04
aF-0.13
aI453
aI501
aI-349
aF264.04000000000002
aF625.60000000000002
aF-148.12
aa(lp12
g3
ag4
aI0
aF1.0674929618835449
aF-0.050000000000000003
aF-1.04
aF-0.13
aI1267
aI739
aI-921
aF254.84
aF624.67999999999995
aF-152.72
aa(lp13
g3
ag4
aI0
aF1.22157883644104
aF-0.02
aF-1.0900000000000001
aF-0.089999999999999997
aI2352
aI698
aI-673
aF240.12
aF627.44000000000005
aF-163.75999999999999
aa(lp14
g3
ag4
aI0
aF1.3207428455352783
aF0.01
aF-1.1799999999999999
aF-0.070000000000000007
aI643
aI486
aI-2257
aF225.40000000000001
aF637.55999999999995
aF-173.88
aa(lp15
g3
ag4
aI0
aF1.4392998218536377
aF0.050000000000000003
aF-1.1799999999999999
aF-0.070000000000000007
aI1943
aI210
aI-2619
aF218.03999999999999
aF639.39999999999998
aF-179.40000000000001
aa(lp16
g3
ag4
aI0
aF1.5777018070220947
aF0.059999999999999998
aF-1.1799999999999999
aF-0.050000000000000003
aI2037
aI1132
aI-2275
aF193.19999999999999
aF649.51999999999998
aF-190.44
aa(lp17
g3
ag4
aI0
aF1.7210309505462646
aF0.080000000000000002
aF-1.1299999999999999
aF-0.029999999999999999
aI194
aI32
aI-1488
aF167.44
aF654.12
aF-207
aa(lp18
g3
ag4
aI0
aF1.8211038112640381
aF0.10000000000000001
aF-1.0900000000000001
aF0.029999999999999999
aI-2055
aI2228
aI340
aF154.56
aF661.48000000000002
aF-207
aa(lp19
g3
ag4
aI0
aF1.9387359619140625
aF0.13
aF-0.98999999999999999
aF-0.01
aI-3106
aI1256
aI1947
aF176.63999999999999
aF665.15999999999997
aF-184
aa(lp20
g3
ag4
aI0
aF2.0589280128479004
aF0.10000000000000001
aF-0.93000000000000005
aF-0.02
aI-3062
aI604
aI2350
aF207
aF667
aF-152.72
aa(lp21
g3
ag4
aI0
aF2.2208847999572754
aF0.17999999999999999
aF-0.88
aF-0.029999999999999999
aI-294
aI342
aI1674
aF231.84
aF659.63999999999999
aF-135.24000000000001
aa(lp22
g3
ag4
aI0
aF2.321368932723999
aF0.20999999999999999
aF-0.87
aF-0.050000000000000003
aI1250
aI1179
aI-3008
aF226.31999999999999
aF656.88
aF-139.84
aa(lp23
g3
ag4
aI0
aF2.4388549327850342
aF0.23999999999999999
aF-0.88
aF-0.059999999999999998
aI1030
aI1895
aI-3926
aF189.52000000000001
aF669.75999999999999
aF-147.19999999999999
aa(lp24
g3
ag4
aI0
aF2.5761308670043945
aF0.20999999999999999
aF-0.95999999999999996
aF-0.01
aI1011
aI1343
aI-3831
aF155.47999999999999
aF679.88
aF-155.47999999999999
aa(lp25
g3
ag4
aI0
aF2.7216508388519287
aF0.27000000000000002
aF-0.95999999999999996
aF-0.050000000000000003
aI2148
aI807
aI-2455
aF122.36
aF687.24000000000001
aF-164.68000000000001
aa(lp26
g3
ag4
aI0
aF2.8207700252532959
aF0.29999999999999999
aF-1.02
aF-0.02
aI1158
aI-779
aI-463
aF115.92
aF683.55999999999995
aF-180.31999999999999
aa(lp27
g3
ag4
aI0
aF2.9250578880310059
aF0.31
aF-1.02
aF0.01
aI64
aI-1040
aI202
aF114.08
aF681.72000000000003
aF-184
aa(lp28
g3
ag4
aI0
aF3.0491688251495361
aF0.34000000000000002
aF-1.05
aF-0.01
aI-122
aI-48
aI918
aF113.16
aF680.79999999999995
aF-187.68000000000001
aa(lp29
g3
ag4
aI0
aF3.2203500270843506
aF0.29999999999999999
aF-1.04
aF-0
aI-1485
aI-142
aI1649
aF124.2
aF679.88
aF-181.24000000000001
aa(lp30
g3
ag4
aI0
aF3.3222119808197021
aF0.28999999999999998
aF-1.0700000000000001
aF-0
aI-1517
aI911
aI2818
aF139.84
aF675.27999999999997
aF-172.03999999999999
aa(lp31
g3
ag4
aI0
aF3.4212930202484131
aF0.28000000000000003
aF-1.1000000000000001
aF-0.029999999999999999
aI-847
aI1364
aI1677
aF162.84
aF669.75999999999999
aF-159.16
aa(lp32
g3
ag4
aI0
aF3.5411379337310791
aF0.29999999999999999
aF-1.1599999999999999
aF-0.029999999999999999
aI14
aI2009
aI289
aF172.96000000000001
aF666.08000000000004
aF-150.88
aa(lp33
g3
ag4
aI0
aF3.6675729751586914
aF0.28000000000000003
aF-1.2
aF-0.01
aI1273
aI-372
aI-462
aF172.03999999999999
aF667
aF-156.40000000000001
aa(lp34
g3
ag4
aI0
aF3.8376059532165527
aF0.31
aF-1.23
aF0
aI1700
aI-102
aI-1943
aF157.31999999999999
aF669.75999999999999
aF-170.19999999999999
aa(lp35
g3
ag4
aI0
aF3.9207959175109863
aF0.32000000000000001
aF-1.21
aF0.040000000000000001
aI1960
aI-274
aI-1504
aF141.68000000000001
aF670.67999999999995
aF-185.84
aa(lp36
g3
ag4
aI0
aF4.0313558578491211
aF0.32000000000000001
aF-1.1499999999999999
aF0
aI110
aI-28
aI145
aF138.91999999999999
aF669.75999999999999
aF-189.52000000000001
aa(lp37
g3
ag4
aI0
aF4.1626558303833008
aF0.27000000000000002
aF-1.0900000000000001
aF-0.01
aI-1687
aI1223
aI2786
aF144.44
aF670.67999999999995
aF-187.68000000000001
aa(lp38
g3
ag4
aI0
aF4.3216128349304199
aF0.22
aF-0.97999999999999998
aF-0.01
aI-2657
aI-743
aI4865
aF173.88
aF667.91999999999996
aF-172.03999999999999
aa(lp39
g3
ag4
aI0
aF4.4220259189605713
aF0.19
aF-0.90000000000000002
aF-0.040000000000000001
aI-2383
aI495
aI6616
aF224.47999999999999
aF655.03999999999996
aF-150.88
aa(lp40
g3
ag4
aI0
aF4.535071849822998
aF0.14000000000000001
aF-0.79000000000000004
aF-0.029999999999999999
aI-1784
aI-1493
aI2799
aF411.24000000000001
aF0.92000000000000004
aF2037.8
aa(lp41
g3
ag4
aI0
aF4.6713700294494629
aF0.17000000000000001
aF-0.81999999999999995
aF-0.050000000000000003
aI854
aI2249
aI-5063
aF275.07999999999998
aF627.44000000000005
aF-125.12
aa(lp42
g3
ag4
aI0
aF4.8224358558654785
aF0.13
aF-0.82999999999999996
aF-0.040000000000000001
aI1422
aI-338
aI-6620
aF224.47999999999999
aF651.36000000000001
aF-131.56
aa(lp43
g3
ag4
aI0
aF4.9218418598175049
aF0.14999999999999999
aF-0.91000000000000003
aF-0
aI690
aI1531
aI-4745
aF165.59999999999999
aF670.67999999999995
aF-143.52000000000001
aa(lp44
g3
ag4
aI0
aF5.0287699699401855
aF0.17999999999999999
aF-1
aF-0.01
aI1605
aI-1531
aI-2872
aF129.72
aF679.88
aF-157.31999999999999
aa(lp45
g3
ag4
aI0
aF5.1525688171386719
aF0.26000000000000001
aF-1.03
aF0
aI-561
aI-796
aI-1366
aF111.31999999999999
aF680.79999999999995
aF-159.16
aa(lp46
g3
ag4
aI0
aF5.2875440120697021
aF0.32000000000000001
aF-1.05
aF-0
aI-573
aI-1726
aI823
aF111.31999999999999
aF679.88
aF-157.31999999999999
aa(lp47
g3
ag4
aI0
aF5.4209978580474854
aF0.31
aF-1.03
aF-0.059999999999999998
aI-2319
aI67
aI1904
aF122.36
aF680.79999999999995
aF-143.52000000000001
aa(lp48
g3
ag4
aI0
aF5.532667875289917
aF0.33000000000000002
aF-1.05
aF-0.089999999999999997
aI-1750
aI-143
aI1983
aF143.52000000000001
aF681.72000000000003
aF-125.12
aa(lp49
g3
ag4
aI0
aF5.6561169624328613
aF0.28000000000000003
aF-1.0800000000000001
aF-0.11
aI504
aI-129
aI2468
aF151.80000000000001
aF677.12
aF-124.2
aa(lp50
g3
ag4
aI0
aF5.821897029876709
aF0.28999999999999998
aF-1.1599999999999999
aF-0.10000000000000001
aI1480
aI483
aI1381
aF170.19999999999999
aF669.75999999999999
aF-133.40000000000001
aa(lp51
g3
ag4
aI0
aF5.9219930171966553
aF0.31
aF-1.22
aF-0.12
aI1142
aI1460
aI-1421
aF173.88
aF662.39999999999998
aF-137.08000000000001
aa(lp52
g3
ag4
aI0
aF6.0751090049743652
aF0.29999999999999999
aF-1.24
aF-0.059999999999999998
aI2138
aI-547
aI-1864
aF161.91999999999999
aF667.91999999999996
aF-146.28
aa(lp53
g3
ag4
aI0
aF6.2219219207763672
aF0.33000000000000002
aF-1.23
aF-0.029999999999999999
aI971
aI-1236
aI-980
aF139.84
aF672.51999999999998
aF-166.52000000000001
aa(lp54
g3
ag4
aI0
aF6.3211579322814941
aF0.31
aF-1.1899999999999999
aF-0.01
aI-199
aI-2136
aI219
aF133.40000000000001
aF675.27999999999997
aF-169.28
aa(lp55
g3
ag4
aI0
aF6.4219989776611328
aF0.22
aF-1.1000000000000001
aF-0.02
aI-954
aI-393
aI2807
aF144.44
aF672.51999999999998
aF-164.68000000000001
aa(lp56
g3
ag4
aI0
aF6.5225698947906494
aF0.23999999999999999
aF-0.98999999999999999
aF-0.11
aI-948
aI-218
aI5704
aF188.59999999999999
aF664.24000000000001
aF-158.24000000000001
aa(lp57
g3
ag4
aI0
aF6.6464498043060303
aF0.17000000000000001
aF-0.91000000000000003
aF-0.089999999999999997
aI-1914
aI838
aI6338
aF250.24000000000001
aF649.51999999999998
aF-142.59999999999999
aa(lp58
g3
ag4
aI0
aF6.7704949378967285
aF0.17999999999999999
aF-0.82999999999999996
aF-0.070000000000000007
aI183
aI1483
aI2401
aF315.56
aF625.60000000000002
aF-135.24000000000001
aa(lp59
g3
ag4
aI0
aF6.9220058917999268
aF0.13
aF-0.83999999999999997
aF-0.050000000000000003
aI-7
aI1508
aI-4189
aF291.63999999999999
aF639.39999999999998
aF-136.16
aa(lp60
g3
ag4
aI0
aF7.0514669418334961
aF0.17999999999999999
aF-0.88
aF-0.02
aI-751
aI1606
aI-5094
aF269.56
aF647.67999999999995
aF-135.24000000000001
aa(lp61
g3
ag4
aI0
aF7.1426680088043213
aF0.14999999999999999
aF-0.84999999999999998
aF-0.059999999999999998
aI-787
aI808
aI-5278
aF228.16
aF668.84000000000003
aF-123.28
aa(lp62
g3
ag4
aI0
aF7.2675378322601318
aF0.23000000000000001
aF-0.97999999999999998
aF-0.10000000000000001
aI-363
aI1265
aI-3258
aF171.12
aF680.79999999999995
aF-119.59999999999999
aa(lp63
g3
ag4
aI0
aF7.4211788177490234
aF0.31
aF-1
aF-0.13
aI428
aI-500
aI-1029
aF145.36000000000001
aF689.08000000000004
aF-120.52
aa(lp64
g3
ag4
aI0
aF7.5207610130310059
aF0.32000000000000001
aF-1.0600000000000001
aF-0.10000000000000001
aI229
aI605
aI719
aF129.72
aF685.39999999999998
aF-124.2
aa(lp65
g3
ag4
aI0
aF7.6764538288116455
aF0.32000000000000001
aF-1.05
aF-0.13
aI-849
aI555
aI1765
aF149.96000000000001
aF682.63999999999999
aF-120.52
aa(lp66
g3
ag4
aI0
aF7.8217048645019531
aF0.28999999999999998
aF-1.05
aF-0.10000000000000001
aI-804
aI151
aI1753
aF163.75999999999999
aF678.03999999999996
aF-114.08
aa(lp67
g3
ag4
aI0
aF7.9219310283660889
aF0.26000000000000001
aF-1.0600000000000001
aF-0.12
aI-607
aI363
aI2518
aF179.40000000000001
aF674.36000000000001
aF-112.23999999999999
aa(lp68
g3
ag4
aI0
aF8.0214669704437256
aF0.22
aF-1.0800000000000001
aF-0.14000000000000001
aI-98
aI160
aI1936
aF197.80000000000001
aF667.91999999999996
aF-107.64
aa(lp69
g3
ag4
aI0
aF8.1476140022277832
aF0.22
aF-1.1399999999999999
aF-0.11
aI-88
aI1088
aI1077
aF207.91999999999999
aF661.48000000000002
aF-105.8
aa(lp70
g3
ag4
aI0
aF8.3114387989044189
aF0.26000000000000001
aF-1.23
aF-0.14999999999999999
aI423
aI745
aI-145
aF207
aF660.55999999999995
aF-104.88
aa(lp71
g3
ag4
aI0
aF8.4215989112854004
aF0.22
aF-1.27
aF-0.12
aI1023
aI-350
aI-1045
aF201.47999999999999
aF659.63999999999999
aF-107.64
aa(lp72
g3
ag4
aI0
aF8.5211658477783203
aF0.22
aF-1.27
aF-0.13
aI302
aI-572
aI-1243
aF184.91999999999999
aF667
aF-115
aa(lp73
g3
ag4
aI0
aF8.6262660026550293
aF0.17999999999999999
aF-1.21
aF-0.14999999999999999
aI-207
aI379
aI2353
aF182.16
aF672.51999999999998
aF-112.23999999999999
aa(lp74
g3
ag4
aI0
aF8.7499949932098389
aF0.02
aF-1.05
aF-0.12
aI-867
aI-3597
aI7689
aF221.72
aF661.48000000000002
aF-108.56
aa(lp75
g3
ag4
aI0
aF8.8762869834899902
aF0.089999999999999997
aF-0.73999999999999999
aF-0.050000000000000003
aI2071
aI-1567
aI6410
aF306.36000000000001
aF627.44000000000005
aF-114.08
aa(lp76
g3
ag4
aI0
aF9.0224850177764893
aF0.14000000000000001
aF-0.77000000000000002
aF-0.040000000000000001
aI436
aI1888
aI-4897
aF318.31999999999999
aF619.15999999999997
aF-131.56
aa(lp77
g3
ag4
aI0
aF9.1239998340606689
aF0.17000000000000001
aF-0.89000000000000001
aF-0.050000000000000003
aI-343
aI-528
aI-5599
aF264.95999999999998
aF650.44000000000005
aF-127.88
aa(lp78
g3
ag4
aI0
aF9.2462968826293945
aF0.13
aF-0.84999999999999998
aF-0.050000000000000003
aI-621
aI-1059
aI-6372
aF203.31999999999999
aF670.67999999999995
aF-129.72
aa(lp79
g3
ag4
aI0
aF9.3713598251342773
aF0.17000000000000001
aF-0.91000000000000003
aF-0.050000000000000003
aI-120
aI238
aI-4077
aF145.36000000000001
aF685.39999999999998
aF-131.56
aa(lp80
g3
ag4
aI0
aF9.5214178562164307
aF0.25
aF-1
aF-0.070000000000000007
aI768
aI1096
aI-1972
aF124.2
aF686.32000000000005
aF-134.31999999999999
aa(lp81
g3
ag4
aI0
aF9.6210978031158447
aF0.25
aF-1.01
aF-0.050000000000000003
aI-651
aI334
aI81
aF115.92
aF687.24000000000001
aF-136.16
aa(lp82
g3
ag4
aI0
aF9.7400839328765869
aF0.28999999999999998
aF-1.03
aF-0.080000000000000002
aI-633
aI703
aI1636
aF121.44
aF687.24000000000001
aF-133.40000000000001
aa(lp83
g3
ag4
aI0
aF9.8640379905700684
aF0.32000000000000001
aF-1.04
aF-0.11
aI-709
aI702
aI2722
aF134.31999999999999
aF685.39999999999998
aF-128.80000000000001
aa(lp84
g3
ag4
aI0
aF10.021783828735352
aF0.31
aF-1.05
aF-0.12
aI-842
aI380
aI2898
aF159.16
aF678.96000000000004
aF-122.36
aa(lp85
g3
ag4
aI0
aF10.127562999725342
aF0.23999999999999999
aF-1.0700000000000001
aF-0.11
aI532
aI-121
aI2431
aF183.08000000000001
aF670.67999999999995
aF-115
aa(lp86
g3
ag4
aI0
aF10.248944997787476
aF0.22
aF-1.1399999999999999
aF-0.089999999999999997
aI485
aI-235
aI1786
aF203.31999999999999
aF662.39999999999998
aF-116.84
aa(lp87
g3
ag4
aI0
aF10.360090017318726
aF0.23000000000000001
aF-1.23
aF-0.13
aI805
aI826
aI-202
aF213.44
aF657.79999999999995
aF-122.36
aa(lp88
g3
ag4
aI0
aF10.52092981338501
aF0.22
aF-1.27
aF-0.13
aI1681
aI-193
aI-2798
aF197.80000000000001
aF661.48000000000002
aF-131.56
aa(lp89
g3
ag4
aI0
aF10.621868848800659
aF0.22
aF-1.25
aF-0.070000000000000007
aI1987
aI1158
aI-2206
aF171.12
aF672.51999999999998
aF-140.75999999999999
aa(lp90
g3
ag4
aI0
aF10.736459016799927
aF0.20999999999999999
aF-1.1499999999999999
aF-0.040000000000000001
aI977
aI-414
aI1239
aF169.28
aF671.60000000000002
aF-154.56
aa(lp91
g3
ag4
aI0
aF10.893983840942383
aF0.050000000000000003
aF-1.0600000000000001
aF0.029999999999999999
aI-1546
aI-4082
aI4464
aF201.47999999999999
aF666.08000000000004
aF-152.72
aa(lp92
g3
ag4
aI0
aF11.020947933197021
aF0.11
aF-0.92000000000000004
aF0.02
aI-2035
aI-2536
aI6074
aF230.91999999999999
aF658.72000000000003
aF-147.19999999999999
aa(lp93
g3
ag4
aI0
aF11.121014833450317
aF0.14999999999999999
aF-0.78000000000000003
aF0.01
aI253
aI-1544
aI1076
aF294.39999999999998
aF637.55999999999995
aF-136.16
aa(lp94
g3
ag4
aI0
aF11.227837800979614
aF0.20999999999999999
aF-0.81999999999999995
aF0.01
aI-113
aI1095
aI-7021
aF287.04000000000002
aF644.91999999999996
aF-138.91999999999999
aa(lp95
g3
ag4
aI0
aF11.35130786895752
aF0.23000000000000001
aF-0.90000000000000002
aF-0.02
aI564
aI1967
aI-5728
aF214.36000000000001
aF667
aF-138
aa(lp96
g3
ag4
aI0
aF11.517722845077515
aF0.26000000000000001
aF-0.91000000000000003
aF-0.070000000000000007
aI1943
aI1801
aI-4419
aF168.36000000000001
aF683.55999999999995
aF-138
aa(lp97
g3
ag4
aI0
aF11.620734930038452
aF0.33000000000000002
aF-0.93000000000000005
aF-0.040000000000000001
aI468
aI2399
aI-3149
aF132.47999999999999
aF688.15999999999997
aF-147.19999999999999
aa(lp98
g3
ag4
aI0
aF11.734930992126465
aF0.33000000000000002
aF-1.01
aF0.02
aI219
aI97
aI-646
aF115
aF691.84000000000003
aF-153.63999999999999
aa(lp99
g3
ag4
aI0
aF11.836313962936401
aF0.35999999999999999
aF-1.02
aF0.02
aI-157
aI71
aI1408
aF114.08
aF690.91999999999996
aF-152.72
aa(lp100
g3
ag4
aI0
aF11.96005392074585
aF0.37
aF-1.04
aF0.01
aI-95
aI494
aI1630
aF124.2
aF683.55999999999995
aF-152.72
aa(lp101
g3
ag4
aI0
aF12.120754957199097
aF0.34000000000000002
aF-1.05
aF-0
aI-939
aI-14
aI2598
aF141.68000000000001
aF678.03999999999996
aF-148.12
aa(lp102
g3
ag4
aI0
aF12.22163200378418
aF0.33000000000000002
aF-1.0600000000000001
aF-0
aI-1094
aI-328
aI2225
aF151.80000000000001
aF679.88
aF-148.12
aa(lp103
g3
ag4
aI0
aF12.330235004425049
aF0.26000000000000001
aF-1.0900000000000001
aF-0
aI-1417
aI527
aI2030
aF170.19999999999999
aF673.44000000000005
aF-139.84
aa(lp104
g3
ag4
aI0
aF12.453961849212646
aF0.22
aF-1.1200000000000001
aF-0.01
aI-234
aI287
aI1380
aF187.68000000000001
aF669.75999999999999
aF-126.04000000000001
aa(lp105
g3
ag4
aI0
aF12.621045827865601
aF0.26000000000000001
aF-1.21
aF-0.059999999999999998
aI47
aI707
aI276
aF190.44
aF666.08000000000004
aF-126.95999999999999
aa(lp106
g3
ag4
aI0
aF12.72077488899231
aF0.25
aF-1.25
aF-0.070000000000000007
aI607
aI690
aI-1368
aF184.91999999999999
aF665.15999999999997
aF-128.80000000000001
aa(lp107
g3
ag4
aI0
aF12.833722829818726
aF0.23999999999999999
aF-1.27
aF-0.070000000000000007
aI-1148
aI-342
aI-1549
aF172.03999999999999
aF675.27999999999997
aF-132.47999999999999
aa(lp108
g3
ag4
aI0
aF12.957840919494629
aF0.22
aF-1.2
aF-0.050000000000000003
aI-1399
aI128
aI2174
aF174.80000000000001
aF678.03999999999996
aF-117.76000000000001
aa(lp109
g3
ag4
aI0
aF13.121618032455444
aF0.16
aF-1.0700000000000001
aF-0.02
aI-3716
aI-2174
aI6439
aF216.19999999999999
aF663.32000000000005
aF-96.599999999999994
aa(lp110
g3
ag4
aI0
aF13.220885992050171
aF-0.01
aF-0.87
aF0.02
aI-1497
aI-922
aI8720
aF295.31999999999999
aF630.20000000000005
aF-80.959999999999994
aa(lp111
g3
ag4
aI0
aF13.321038961410522
aF0.070000000000000007
aF-0.76000000000000001
aF-0.040000000000000001
aI492
aI612
aI-1179
aF342.24000000000001
aF609.03999999999996
aF-83.719999999999999
aa(lp112
g3
ag4
aI0
aF13.474895000457764
aF0.10000000000000001
aF-0.84999999999999998
aF-0.080000000000000002
aI-316
aI1913
aI-5139
aF316.48000000000002
aF618.24000000000001
aF-85.560000000000002
aa(lp113
g3
ag4
aI0
aF13.62054181098938
aF0.10000000000000001
aF-0.87
aF-0.080000000000000002
aI235
aI104
aI-6103
aF262.19999999999999
aF650.44000000000005
aF-84.640000000000001
aa(lp114
g3
ag4
aI0
aF13.721143960952759
aF0.11
aF-0.85999999999999999
aF-0.14000000000000001
aI366
aI-501
aI-4322
aF207.91999999999999
aF667.91999999999996
aF-85.560000000000002
aa(lp115
g3
ag4
aI0
aF13.820626974105835
aF0.20999999999999999
aF-0.96999999999999997
aF-0.14999999999999999
aI888
aI-16
aI-2555
aF165.59999999999999
aF680.79999999999995
aF-97.519999999999996
aa(lp116
g3
ag4
aI0
aF13.936486005783081
aF0.23000000000000001
aF-1.01
aF-0.13
aI-30
aI815
aI-1093
aF149.96000000000001
aF685.39999999999998
aF-101.2
aa(lp117
g3
ag4
aI0
aF14.093883991241455
aF0.27000000000000002
aF-1.02
aF-0.13
aI223
aI-1304
aI-317
aF138.91999999999999
aF689.08000000000004
aF-102.12
aa(lp118
g3
ag4
aI0
aF14.221266031265259
aF0.26000000000000001
aF-1
aF-0.14000000000000001
aI-1009
aI203
aI196
aF138.91999999999999
aF686.32000000000005
aF-103.04000000000001
aa(lp119
g3
ag4
aI0
aF14.321758031845093
aF0.26000000000000001
aF-1.03
aF-0.12
aI96
aI-177
aI674
aF143.52000000000001
aF686.32000000000005
aF-96.599999999999994
aa(lp120
g3
ag4
aI0
aF14.422773838043213
aF0.28000000000000003
aF-1.04
aF-0.13
aI31
aI615
aI1232
aF152.72
aF680.79999999999995
aF-98.439999999999998
aa(lp121
g3
ag4
aI0
aF14.546515941619873
aF0.27000000000000002
aF-1.0600000000000001
aF-0.10000000000000001
aI-606
aI556
aI522
aF154.56
aF678.96000000000004
aF-95.680000000000007
aa(lp122
g3
ag4
aI0
aF14.67389702796936
aF0.28999999999999998
aF-1.0900000000000001
aF-0.10000000000000001
aI-262
aI109
aI1212
aF160.08000000000001
aF678.03999999999996
aF-93.840000000000003
aa(lp123
g3
ag4
aI0
aF14.820822954177856
aF0.29999999999999999
aF-1.1399999999999999
aF-0.11
aI475
aI-891
aI1074
aF170.19999999999999
aF678.03999999999996
aF-90.159999999999997
aa(lp124
g3
ag4
aI0
aF14.920842885971069
aF0.28000000000000003
aF-1.1699999999999999
aF-0.12
aI696
aI-704
aI-450
aF175.72
aF672.51999999999998
aF-101.2
aa(lp125
g3
ag4
aI0
aF15.056613922119141
aF0.28999999999999998
aF-1.1599999999999999
aF-0.12
aI1528
aI864
aI-1218
aF165.59999999999999
aF673.44000000000005
aF-103.95999999999999
aa(lp126
g3
ag4
aI0
aF15.220464944839478
aF0.31
aF-1.1599999999999999
aF-0.11
aI1941
aI194
aI-1711
aF149.96000000000001
aF680.79999999999995
aF-119.59999999999999
aa(lp127
g3
ag4
aI0
aF15.321462869644165
aF0.28999999999999998
aF-1.1399999999999999
aF-0.089999999999999997
aI986
aI-217
aI-1040
aF138
aF687.24000000000001
aF-129.72
aa(lp128
g3
ag4
aI0
aF15.420651912689209
aF0.31
aF-1.0900000000000001
aF-0.080000000000000002
aI40
aI-831
aI1257
aF141.68000000000001
aF686.32000000000005
aF-132.47999999999999
aa(lp129
g3
ag4
aI0
aF15.525147914886475
aF0.31
aF-1.0700000000000001
aF-0.080000000000000002
aI-491
aI997
aI4643
aF167.44
aF680.79999999999995
aF-126.95999999999999
aa(lp130
g3
ag4
aI0
aF15.658949851989746
aF0.22
aF-0.93999999999999995
aF-0.029999999999999999
aI-1076
aI-111
aI7112
aF201.47999999999999
aF674.36000000000001
aF-122.36
aa(lp131
g3
ag4
aI0
aF15.820802927017212
aF0.28000000000000003
aF-0.81999999999999995
aF0
aI-280
aI-796
aI5851
aF263.12
aF645.84000000000003
aF-116.84
aa(lp132
g3
ag4
aI0
aF15.920650005340576
aF0.22
aF-0.84999999999999998
aF0.040000000000000001
aI515
aI2999
aI-3597
aF307.27999999999997
aF629.27999999999997
aF-114.08
aa(lp133
g3
ag4
aI0
aF16.041096925735474
aF0.23000000000000001
aF-0.92000000000000004
aF0.080000000000000002
aI103
aI814
aI-5869
aF271.39999999999998
aF646.75999999999999
aF-115
aa(lp134
g3
ag4
aI0
aF16.157572984695435
aF0.23999999999999999
aF-0.92000000000000004
aF0.040000000000000001
aI54
aI836
aI-5855
aF215.28
aF667
aF-113.16
aa(lp135
g3
ag4
aI0
aF16.321768999099731
aF0.23999999999999999
aF-0.97999999999999998
aF0.059999999999999998
aI1254
aI-527
aI-3879
aF161.91999999999999
aF681.72000000000003
aF-120.52
aa(lp136
g3
ag4
aI0
aF16.421465873718262
aF0.23999999999999999
aF-1.01
aF0.050000000000000003
aI-741
aI221
aI-1806
aF141.68000000000001
aF687.24000000000001
aF-123.28
aa(lp137
g3
ag4
aI0
aF16.521179914474487
aF0.28000000000000003
aF-1
aF-0
aI-168
aI449
aI-343
aF130.63999999999999
aF689.08000000000004
aF-118.68000000000001
aa(lp138
g3
ag4
aI0
aF16.650163888931274
aF0.34000000000000002
aF-1
aF-0.029999999999999999
aI-255
aI-1118
aI669
aF124.2
aF690
aF-124.2
aa(lp139
g3
ag4
aI0
aF16.7603600025177
aF0.33000000000000002
aF-1.03
aF-0.02
aI-454
aI-462
aI1143
aF134.31999999999999
aF686.32000000000005
aF-116.84
aa(lp140
g3
ag4
aI0
aF16.920820951461792
aF0.33000000000000002
aF-1.05
aF-0.040000000000000001
aI-1146
aI-590
aI2182
aF141.68000000000001
aF685.39999999999998
aF-114.08
aa(lp141
g3
ag4
aI0
aF17.021713018417358
aF0.28999999999999998
aF-1.0600000000000001
aF-0.040000000000000001
aI-1763
aI-19
aI2198
aF156.40000000000001
aF678.96000000000004
aF-104.88
aa(lp142
g3
ag4
aI0
aF17.165072917938232
aF0.27000000000000002
aF-1.0700000000000001
aF-0.070000000000000007
aI-931
aI-283
aI2612
aF174.80000000000001
aF668.84000000000003
aF-96.599999999999994
aa(lp143
g3
ag4
aI0
aF17.321384906768799
aF0.26000000000000001
aF-1.1200000000000001
aF-0.10000000000000001
aI-659
aI1073
aI1945
aF198.72
aF662.39999999999998
aF-90.159999999999997
aa(lp144
g3
ag4
aI0
aF17.420375823974609
aF0.25
aF-1.1899999999999999
aF-0.12
aI681
aI513
aI112
aF211.59999999999999
aF656.88
aF-83.719999999999999
aa(lp145
g3
ag4
aI0
aF17.521430969238281
aF0.23999999999999999
aF-1.22
aF-0.12
aI1325
aI679
aI-1082
aF204.24000000000001
aF656.88
aF-90.159999999999997
aa(lp146
g3
ag4
aI0
aF17.621461868286133
aF0.20000000000000001
aF-1.2
aF-0.080000000000000002
aI979
aI57
aI-1728
aF192.28
aF664.24000000000001
aF-99.359999999999999
aa(lp147
g3
ag4
aI0
aF17.750099897384644
aF0.20000000000000001
aF-1.1599999999999999
aF-0.080000000000000002
aI108
aI-220
aI-394
aF181.24000000000001
aF671.60000000000002
aF-103.95999999999999
aa(lp148
g3
ag4
aI0
aF17.918812990188599
aF0.20000000000000001
aF-1.1100000000000001
aF-0.070000000000000007
aI-1778
aI-13
aI1521
aF185.84
aF674.36000000000001
aF-99.359999999999999
aa(lp149
g3
ag4
aI0
aF18.020819902420044
aF0.23000000000000001
aF-1
aF-0.12
aI-1902
aI2356
aI4001
aF218.03999999999999
aF661.48000000000002
aF-76.359999999999999
aa(lp150
g3
ag4
aI0
aF18.121681928634644
aF0.14000000000000001
aF-0.95999999999999996
aF-0.059999999999999998
aI-1264
aI287
aI5823
aF241.03999999999999
aF651.36000000000001
aF-66.239999999999995
aa(lp151
g3
ag4
aI0
aF18.258935928344727
aF0.20000000000000001
aF-0.88
aF-0.070000000000000007
aI-384
aI-1193
aI7738
aF310.04000000000002
aF618.24000000000001
aF-56.119999999999997
aa(lp152
g3
ag4
aI0
aF18.421128988265991
aF0.14000000000000001
aF-0.82999999999999996
aF-0.050000000000000003
aI1399
aI714
aI-4067
aF354.19999999999999
aF591.55999999999995
aF-68.079999999999998
aa(lp153
g3
ag4
aI0
aF18.521613836288452
aF0.16
aF-0.81999999999999995
aF-0.01
aI1845
aI-517
aI-8277
aF302.68000000000001
aF621.91999999999996
aF-74.519999999999996
aa(lp154
g3
ag4
aI0
aF18.621485948562622
aF0.12
aF-0.85999999999999999
aF-0.050000000000000003
aI1770
aI-1569
aI-6304
aF231.84
aF661.48000000000002
aF-87.400000000000006
aa(lp155
g3
ag4
aI0
aF18.740013837814331
aF0.20000000000000001
aF-0.93000000000000005
aF-0.080000000000000002
aI1975
aI-367
aI-4286
aF170.19999999999999
aF676.20000000000005
aF-103.04000000000001
aa(lp156
g3
ag4
aI0
aF18.878893852233887
aF0.28999999999999998
aF-1
aF-0.050000000000000003
aI1516
aI36
aI-1720
aF140.75999999999999
aF685.39999999999998
aF-119.59999999999999
aa(lp157
g3
ag4
aI0
aF19.020705938339233
aF0.28999999999999998
aF-1.03
aF-0.01
aI775
aI-184
aI-902
aF126.04000000000001
aF690
aF-126.95999999999999
aa(lp158
g3
ag4
aI0
aF19.120837926864624
aF0.34999999999999998
aF-1.04
aF0
aI-717
aI-962
aI-332
aF122.36
aF688.15999999999997
aF-127.88
aa(lp159
g3
ag4
aI0
aF19.230113983154297
aF0.40000000000000002
aF-1.04
aF-0.01
aI114
aI1240
aI626
aF126.04000000000001
aF690
aF-125.12
aa(lp160
g3
ag4
aI0
aF19.350297927856445
aF0.40000000000000002
aF-1.0700000000000001
aF0.02
aI-1461
aI-261
aI1922
aF131.56
aF686.32000000000005
aF-124.2
aa(lp161
g3
ag4
aI0
aF19.521025896072388
aF0.32000000000000001
aF-1.0700000000000001
aF0.029999999999999999
aI-1221
aI-380
aI2474
aF151.80000000000001
aF680.79999999999995
aF-112.23999999999999
aa(lp162
g3
ag4
aI0
aF19.622097969055176
aF0.33000000000000002
aF-1.1399999999999999
aF0.01
aI-523
aI-191
aI2386
aF167.44
aF676.20000000000005
aF-103.95999999999999
aa(lp163
g3
ag4
aI0
aF19.730000972747803
aF0.33000000000000002
aF-1.21
aF-0.040000000000000001
aI338
aI-108
aI1036
aF185.84
aF669.75999999999999
aF-103.04000000000001
aa(lp164
g3
ag4
aI0
aF19.856498956680298
aF0.29999999999999999
aF-1.22
aF-0.050000000000000003
aI1119
aI-522
aI-829
aF184.91999999999999
aF668.84000000000003
aF-109.48
aa(lp165
g3
ag4
aI0
aF20.020685911178589
aF0.28000000000000003
aF-1.1799999999999999
aF-0.029999999999999999
aI1008
aI708
aI-1042
aF172.96000000000001
aF670.67999999999995
aF-117.76000000000001
aa(lp166
g3
ag4
aI0
aF20.12166690826416
aF0.28000000000000003
aF-1.1200000000000001
aF-0.040000000000000001
aI-439
aI-1484
aI130
aF168.36000000000001
aF675.27999999999997
aF-123.28
aa(lp167
g3
ag4
aI0
aF20.220854997634888
aF0.27000000000000002
aF-1.05
aF-0.040000000000000001
aI-874
aI2313
aI1623
aF178.47999999999999
aF675.27999999999997
aF-115
aa(lp168
g3
ag4
aI0
aF20.34158182144165
aF0.080000000000000002
aF-1.03
aF0.070000000000000007
aI-881
aI-2458
aI3540
aF201.47999999999999
aF669.75999999999999
aF-106.72
aa(lp169
g3
ag4
aI0
aF20.488991975784302
aF0.12
aF-0.94999999999999996
aF0.02
aI-2470
aI764
aI6367
aF264.04000000000002
aF648.60000000000002
aF-88.319999999999993
aa(lp170
g3
ag4
aI0
aF20.621395826339722
aF0.13
aF-0.81999999999999995
aF-0.01
aI-206
aI444
aI3402
aF315.56
aF623.75999999999999
aF-79.120000000000005
aa(lp171
g3
ag4
aI0
aF20.721592903137207
aF0.17000000000000001
aF-0.84999999999999998
aF-0.01
aI1778
aI749
aI-5362
aF305.44
aF624.67999999999995
aF-87.400000000000006
aa(lp172
g3
ag4
aI0
aF20.84367299079895
aF0.20000000000000001
aF-0.87
aF-0.02
aI1224
aI2156
aI-5439
aF252.08000000000001
aF649.51999999999998
aF-101.2
aa(lp173
g3
ag4
aI0
aF20.967643976211548
aF0.22
aF-0.94999999999999996
aF0.059999999999999998
aI1822
aI-1480
aI-5168
aF207.91999999999999
aF670.67999999999995
aF-106.72
aa(lp174
g3
ag4
aI0
aF21.147634983062744
aF0.29999999999999999
aF-0.97999999999999998
aF0.050000000000000003
aI1286
aI-243
aI-3280
aF157.31999999999999
aF683.55999999999995
aF-125.12
aa(lp175
g3
ag4
aI0
aF21.22055196762085
aF0.31
aF-1.01
aF-0.01
aI130
aI-299
aI-1287
aF135.24000000000001
aF688.15999999999997
aF-134.31999999999999
aa(lp176
g3
ag4
aI0
aF21.334004878997803
aF0.32000000000000001
aF-1.03
aF-0.01
aI424
aI-537
aI-300
aF126.04000000000001
aF689.08000000000004
aF-132.47999999999999
aa(lp177
g3
ag4
aI0
aF21.453910827636719
aF0.37
aF-1.04
aF-0.01
aI-432
aI616
aI116
aF120.52
aF690.91999999999996
aF-135.24000000000001
aa(lp178
g3
ag4
aI0
aF21.620857954025269
aF0.37
aF-1.01
aF-0.01
aI-694
aI205
aI238
aF124.2
aF689.08000000000004
aF-129.72
aa(lp179
g3
ag4
aI0
aF21.721377849578857
aF0.38
aF-1.05
aF0
aI-691
aI-60
aI889
aF127.88
aF688.15999999999997
aF-128.80000000000001
aa(lp180
g3
ag4
aI0
aF21.825079917907715
aF0.40999999999999998
aF-1.1100000000000001
aF-0.01
aI-395
aI-310
aI1271
aF138
aF684.48000000000002
aF-120.52
aa(lp181
g3
ag4
aI0
aF21.946293830871582
aF0.44
aF-1.2
aF-0.02
aI-42
aI732
aI734
aF139.84
aF684.48000000000002
aF-121.44
aa(lp182
g3
ag4
aI0
aF22.070212841033936
aF0.42999999999999999
aF-1.21
aF-0.040000000000000001
aI496
aI1033
aI483
aF142.59999999999999
aF684.48000000000002
aF-123.28
aa(lp183
g3
ag4
aI0
aF22.220610857009888
aF0.35999999999999999
aF-1.1699999999999999
aF-0.02
aI410
aI-117
aI772
aF0.92000000000000004
aF8.2799999999999994
aF15722.799999999999
aa(lp184
g3
ag4
aI0
aF22.321539878845215
aF0.29999999999999999
aF-1.1200000000000001
aF-0.02
aI-1075
aI-565
aI1444
aF150.88
aF679.88
aF-127.88
aa(lp185
g3
ag4
aI0
aF22.433960914611816
aF0.27000000000000002
aF-1.03
aF-0.029999999999999999
aI-2804
aI159
aI2793
aF169.28
aF678.03999999999996
aF-111.31999999999999
aa(lp186
g3
ag4
aI0
aF22.556519985198975
aF0.28000000000000003
aF-1.05
aF-0.050000000000000003
aI-1367
aI-987
aI4312
aF197.80000000000001
aF668.84000000000003
aF-94.760000000000005
aa(lp187
g3
ag4
aI0
aF22.721690893173218
aF0.20000000000000001
aF-0.97999999999999998
aF-0.080000000000000002
aI-559
aI-562
aI7226
aF259.44
aF648.60000000000002
aF-82.799999999999997
aa(lp188
g3
ag4
aI0
aF22.82145094871521
aF0.17000000000000001
aF-0.83999999999999997
aF-0.080000000000000002
aI-537
aI-1910
aI2226
aF321.07999999999998
aF624.67999999999995
aF-87.400000000000006
aa(lp189
g3
ag4
aI0
aF22.925153017044067
aF0.14999999999999999
aF-0.89000000000000001
aF-0.080000000000000002
aI320
aI218
aI-6547
aF275.07999999999998
aF639.39999999999998
aF-94.760000000000005
aa(lp190
g3
ag4
aI0
aF23.061420917510986
aF0.28999999999999998
aF-0.97999999999999998
aF-0.11
aI1294
aI1348
aI-6048
aF241.03999999999999
aF651.36000000000001
aF-94.760000000000005
aa(lp191
g3
ag4
aI0
aF23.221035957336426
aF0.28999999999999998
aF-0.96999999999999997
aF-0.059999999999999998
aI1113
aI-901
aI-3840
aF189.52000000000001
aF674.36000000000001
aF-102.12
aa(lp192
g3
ag4
aI0
aF23.320695877075195
aF0.32000000000000001
aF-0.96999999999999997
aF-0.059999999999999998
aI149
aI881
aI-1803
aF153.63999999999999
aF681.72000000000003
aF-112.23999999999999
aa(lp193
g3
ag4
aI0
aF23.422668933868408
aF0.32000000000000001
aF-0.98999999999999999
aF-0.059999999999999998
aI836
aI-798
aI-1365
aF135.24000000000001
aF690
aF-117.76000000000001
aa(lp194
g3
ag4
aI0
aF23.546725988388062
aF0.32000000000000001
aF-1.01
aF-0.080000000000000002
aI-715
aI-1812
aI-1092
aF128.80000000000001
aF690.91999999999996
aF-124.2
aa(lp195
g3
ag4
aI0
aF23.713583946228027
aF0.34000000000000002
aF-1.02
aF-0.11
aI-1346
aI1021
aI-702
aF117.76000000000001
aF688.15999999999997
aF-115
aa(lp196
g3
ag4
aI0
aF23.821574926376343
aF0.34999999999999998
aF-1.03
aF-0.10000000000000001
aI-252
aI-703
aI1346
aF122.36
aF687.24000000000001
aF-107.64
aa(lp197
g3
ag4
aI0
aF23.926775932312012
aF0.31
aF-1.03
aF-0.10000000000000001
aI-1053
aI922
aI2019
aF133.40000000000001
aF688.15999999999997
aF-103.95999999999999
aa(lp198
g3
ag4
aI0
aF24.050058841705322
aF0.31
aF-1.0600000000000001
aF-0.10000000000000001
aI-1356
aI-510
aI1761
aF150.88
aF680.79999999999995
aF-98.439999999999998
aa(lp199
g3
ag4
aI0
aF24.173943996429443
aF0.28000000000000003
aF-1.04
aF-0.11
aI358
aI-1599
aI2428
aF167.44
aF675.27999999999997
aF-94.760000000000005
aa(lp200
g3
ag4
aI0
aF24.321444034576416
aF0.23999999999999999
aF-1.05
aF-0.14000000000000001
aI-1219
aI-1881
aI3235
aF191.36000000000001
aF662.39999999999998
aF-98.439999999999998
aa(lp201
g3
ag4
aI0
aF24.424024820327759
aF0.19
aF-1.0900000000000001
aF-0.14999999999999999
aI-2151
aI-1599
aI2204
aF214.36000000000001
aF654.12
aF-89.239999999999995
aa(lp202
g3
ag4
aI0
aF24.537705898284912
aF0.16
aF-1.0800000000000001
aF-0.16
aI1390
aI561
aI1033
aF215.28
aF646.75999999999999
aF-88.319999999999993
aa(lp203
g3
ag4
aI0
aF24.660419940948486
aF0.12
aF-1.0700000000000001
aF-0.17000000000000001
aI-32
aI-806
aI89
aF223.56
aF647.67999999999995
aF-97.519999999999996
aa(lp204
g3
ag4
aI0
aF24.8211669921875
aF0.13
aF-1.0600000000000001
aF-0.14999999999999999
aI-377
aI-483
aI130
aF221.72
aF644.91999999999996
aF-93.840000000000003
aa(lp205
g3
ag4
aI0
aF24.920676946640015
aF0.12
aF-1.0600000000000001
aF-0.17000000000000001
aI-218
aI-721
aI492
aF226.31999999999999
aF642.15999999999997
aF-98.439999999999998
aa(lp206
g3
ag4
aI0
aF25.029027938842773
aF0.11
aF-1.03
aF-0.17999999999999999
aI-427
aI234
aI249
aF225.40000000000001
aF641.24000000000001
aF-95.680000000000007
aa.