(lp1
(lp2
S'kate'
p3
aS'tricep'
p4
aI0
aF0.00019907951354980469
aF-0.089999999999999997
aF0.97999999999999998
aF0.01
aI381
aI459
aI68
aF-76.359999999999999
aF-302.68000000000001
aF-195.03999999999999
aa(lp5
g3
ag4
aI0
aF0.12033891677856445
aF-0.089999999999999997
aF0.98999999999999999
aF0
aI131
aI310
aI194
aF-77.280000000000001
aF-302.68000000000001
aF-196.88
aa(lp6
g3
ag4
aI0
aF0.2490990161895752
aF-0.080000000000000002
aF0.98999999999999999
aF-0.01
aI147
aI-310
aI308
aF-74.519999999999996
aF-304.51999999999998
aF-195.03999999999999
aa(lp7
g3
ag4
aI0
aF0.37393712997436523
aF-0.080000000000000002
aF0.98999999999999999
aF-0.01
aI236
aI-455
aI409
aF-79.120000000000005
aF-304.51999999999998
aF-191.36000000000001
aa(lp8
g3
ag4
aI0
aF0.49522495269775391
aF-0.089999999999999997
aF0.97999999999999998
aF-0.02
aI119
aI-590
aI272
aF-83.719999999999999
aF-303.60000000000002
aF-188.59999999999999
aa(lp9
g3
ag4
aI0
aF0.61500310897827148
aF-0.089999999999999997
aF0.98999999999999999
aF-0.02
aI51
aI669
aI636
aF-89.239999999999995
aF-303.60000000000002
aF-185.84
aa(lp10
g3
ag4
aI0
aF0.7451779842376709
aF-0.089999999999999997
aF1
aF-0.01
aI460
aI1441
aI798
aF-91.079999999999998
aF-302.68000000000001
aF-185.84
aa(lp11
g3
ag4
aI0
aF0.87634491920471191
aF-0.050000000000000003
aF0.97999999999999998
aF-0.02
aI86
aI1059
aI1015
aF-91.079999999999998
aF-301.75999999999999
aF-186.75999999999999
aa(lp12
g3
ag4
aI0
aF0.99770998954772949
aF-0.029999999999999999
aF0.95999999999999996
aF0.02
aI-224
aI-173
aI443
aF-96.599999999999994
aF-302.68000000000001
aF-188.59999999999999
aa(lp13
g3
ag4
aI0
aF1.1175100803375244
aF0
aF0.98999999999999999
aF0.01
aI-625
aI-109
aI1373
aF-100.28
aF-296.24000000000001
aF-189.52000000000001
aa(lp14
g3
ag4
aI0
aF1.2338120937347412
aF0.13
aF1.03
aF0.01
aI-947
aI1890
aI6661
aF-115
aF-282.44
aF-199.63999999999999
aa(lp15
g3
ag4
aI0
aF1.3489749431610107
aF0.28999999999999998
aF1.05
aF0.01
aI-2235
aI2329
aI15293
aF-182.16
aF-234.59999999999999
aF-215.28
aa(lp16
g3
ag4
aI0
aF1.4899969100952148
aF0.52000000000000002
aF1.01
aF0.050000000000000003
aI-4165
aI1040
aI21019
aF-281.51999999999998
aF-114.08
aF-245.63999999999999
aa(lp17
g3
ag4
aI0
aF1.6125640869140625
aF0.72999999999999998
aF0.87
aF0.10000000000000001
aI-4707
aI-912
aI20888
aF-357.88
aF73.599999999999994
aF-253.91999999999999
aa(lp18
g3
ag4
aI0
aF1.7275381088256836
aF0.78000000000000003
aF0.59999999999999998
aF0.14000000000000001
aI-4459
aI955
aI14078
aF-366.16000000000003
aF247.47999999999999
aF-242.88
aa(lp19
g3
ag4
aI0
aF1.8765430450439453
aF0.81999999999999995
aF0.35999999999999999
aF0.13
aI-2830
aI2077
aI5424
aF-344.07999999999998
aF345
aF-243.80000000000001
aa(lp20
g3
ag4
aI0
aF1.9964070320129395
aF0.82999999999999996
aF0.22
aF0.12
aI223
aI-1848
aI-1928
aF-343.16000000000003
aF357.88
aF-233.68000000000001
aa(lp21
g3
ag4
aI0
aF2.1188430786132812
aF0.87
aF0.23999999999999999
aF0.13
aI1525
aI-1993
aI-10209
aF-367.07999999999998
aF298.07999999999998
aF-220.80000000000001
aa(lp22
g3
ag4
aI0
aF2.2465789318084717
aF0.85999999999999999
aF0.38
aF0.11
aI2444
aI-5257
aI-15145
aF-381.80000000000001
aF242.88
aF-207.91999999999999
aa(lp23
g3
ag4
aI0
aF2.3589890003204346
aF0.70999999999999996
aF0.54000000000000004
aF0.040000000000000001
aI2459
aI-6651
aI-20244
aF-393.75999999999999
aF75.439999999999998
aF-167.44
aa(lp24
g3
ag4
aI0
aF2.4977500438690186
aF0.59999999999999998
aF0.82999999999999996
aF-0.050000000000000003
aI255
aI2838
aI-21513
aF-327.51999999999998
aF-114.08
aF-140.75999999999999
aa(lp25
g3
ag4
aI0
aF2.6301639080047607
aF0.33000000000000002
aF1
aF-0.050000000000000003
aI909
aI3470
aI-19113
aF-192.28
aF-260.36000000000001
aF-155.47999999999999
aa(lp26
g3
ag4
aI0
aF2.751194953918457
aF0.089999999999999997
aF1.05
aF-0.080000000000000002
aI1645
aI1632
aI-14990
aF-36.799999999999997
aF-334.88
aF-154.56
aa(lp27
g3
ag4
aI0
aF2.8688061237335205
aF-0.050000000000000003
aF0.96999999999999997
aF-0.059999999999999998
aI1072
aI1087
aI-5559
aF76.359999999999999
aF-355.12
aF-138.91999999999999
aa(lp28
g3
ag4
aI0
aF2.9862370491027832
aF-0.16
aF0.90000000000000002
aF-0.080000000000000002
aI-60
aI423
aI2762
aF110.40000000000001
aF-356.95999999999998
aF-129.72
aa(lp29
g3
ag4
aI0
aF3.1091749668121338
aF-0.17999999999999999
aF0.91000000000000003
aF-0.040000000000000001
aI-2067
aI-1066
aI8177
aF74.519999999999996
aF-355.12
aF-137.08000000000001
aa(lp30
g3
ag4
aI0
aF3.2339420318603516
aF-0.040000000000000001
aF0.97999999999999998
aF-0.01
aI-5096
aI-866
aI16352
aF-23.920000000000002
aF-335.80000000000001
aF-163.75999999999999
aa(lp31
g3
ag4
aI0
aF3.3852519989013672
aF0.13
aF1.1100000000000001
aF0.089999999999999997
aI-5453
aI4720
aI22413
aF-172.03999999999999
aF-240.12
aF-222.63999999999999
aa(lp32
g3
ag4
aI0
aF3.5114779472351074
aF0.40000000000000002
aF1.0600000000000001
aF0.13
aI-8994
aI2810
aI22121
aF-279.68000000000001
aF-63.479999999999997
aF-285.19999999999999
aa(lp33
g3
ag4
aI0
aF3.6340029239654541
aF0.62
aF0.89000000000000001
aF0.20000000000000001
aI-8944
aI-1383
aI19933
aF-328.44
aF146.28
aF-305.44
aa(lp34
g3
ag4
aI0
aF3.7528510093688965
aF0.72999999999999998
aF0.58999999999999997
aF0.22
aI-4119
aI-11
aI9950
aF-331.19999999999999
aF296.24000000000001
aF-280.60000000000002
aa(lp35
g3
ag4
aI0
aF3.8651790618896484
aF0.78000000000000003
aF0.34999999999999998
aF0.20999999999999999
aI-1219
aI-742
aI3160
aF-320.16000000000003
aF354.19999999999999
aF-274.16000000000003
aa(lp36
g3
ag4
aI0
aF3.9849710464477539
aF0.79000000000000004
aF0.20999999999999999
aF0.23999999999999999
aI984
aI-1637
aI-2480
aF-329.36000000000001
aF353.27999999999997
aF-261.27999999999997
aa(lp37
g3
ag4
aI0
aF4.1088590621948242
aF0.76000000000000001
aF0.23000000000000001
aF0.23000000000000001
aI3490
aI-3045
aI-9140
aF-334.88
aF323.83999999999997
aF-263.12
aa(lp38
g3
ag4
aI0
aF4.2326600551605225
aF0.84999999999999998
aF0.34000000000000002
aF0.16
aI5460
aI-5939
aI-15182
aF-364.31999999999999
aF224.47999999999999
aF-253
aa(lp39
g3
ag4
aI0
aF4.376399040222168
aF0.76000000000000001
aF0.62
aF0.080000000000000002
aI4054
aI-1478
aI-20180
aF-372.60000000000002
aF59.799999999999997
aF-207.91999999999999
aa(lp40
g3
ag4
aI0
aF4.4951019287109375
aF0.56999999999999995
aF0.87
aF0.089999999999999997
aI2223
aI-1672
aI-19654
aF-304.51999999999998
aF-116.84
aF-191.36000000000001
aa(lp41
g3
ag4
aI0
aF4.6437830924987793
aF0.35999999999999999
aF1.02
aF-0
aI1999
aI-3820
aI-19900
aF-188.59999999999999
aF-259.44
aF-163.75999999999999
aa(lp42
g3
ag4
aI0
aF4.7576091289520264
aF0.089999999999999997
aF1.05
aF-0.029999999999999999
aI306
aI1847
aI-15263
aF-37.719999999999999
aF-333.95999999999998
aF-143.52000000000001
aa(lp43
g3
ag4
aI0
aF4.8790650367736816
aF-0.089999999999999997
aF0.96999999999999997
aF-0.040000000000000001
aI-255
aI5379
aI-7871
aF88.319999999999993
aF-354.19999999999999
aF-133.40000000000001
aa(lp44
g3
ag4
aI0
aF5.0037040710449219
aF-0.17000000000000001
aF0.89000000000000001
aF-0.10000000000000001
aI499
aI2068
aI-752
aF144.44
aF-350.51999999999998
aF-125.12
aa(lp45
g3
ag4
aI0
aF5.1300680637359619
aF-0.23000000000000001
aF0.85999999999999999
aF-0.050000000000000003
aI-1038
aI-3310
aI4875
aF134.31999999999999
aF-350.51999999999998
aF-129.72
aa(lp46
g3
ag4
aI0
aF5.2452890872955322
aF-0.14999999999999999
aF0.93999999999999995
aF-0.040000000000000001
aI-2926
aI-1050
aI16113
aF51.520000000000003
aF-349.60000000000002
aF-148.12
aa(lp47
g3
ag4
aI0
aF5.401400089263916
aF0
aF1.1100000000000001
aF-0.040000000000000001
aI-4522
aI-413
aI22704
aF-118.68000000000001
aF-291.63999999999999
aF-184.91999999999999
aa(lp48
g3
ag4
aI0
aF5.5189521312713623
aF0.23000000000000001
aF1.1299999999999999
aF0.01
aI-3613
aI284
aI20556
aF-270.48000000000002
aF-151.80000000000001
aF-211.59999999999999
aa(lp49
g3
ag4
aI0
aF5.6388819217681885
aF0.45000000000000001
aF0.97999999999999998
aF0.080000000000000002
aI-3994
aI-2341
aI16483
aF-353.27999999999997
aF9.1999999999999993
aF-215.28
aa(lp50
g3
ag4
aI0
aF5.7577569484710693
aF0.64000000000000001
aF0.80000000000000004
aF0.089999999999999997
aI-4093
aI1904
aI14489
aF-381.80000000000001
aF161
aF-207.91999999999999
aa(lp51
g3
ag4
aI0
aF5.8764259815216064
aF0.77000000000000002
aF0.54000000000000004
aF0.11
aI-1944
aI2798
aI7680
aF-366.16000000000003
aF269.56
aF-229.08000000000001
aa(lp52
g3
ag4
aI0
aF6.0114800930023193
aF0.72999999999999998
aF0.35999999999999999
aF0.13
aI585
aI-5912
aI170
aF-361.56
aF306.36000000000001
aF-220.80000000000001
aa(lp53
g3
ag4
aI0
aF6.1288290023803711
aF0.76000000000000001
aF0.27000000000000002
aF0.080000000000000002
aI2011
aI-4242
aI-5304
aF-374.44
aF296.24000000000001
aF-197.80000000000001
aa(lp54
g3
ag4
aI0
aF6.2612729072570801
aF0.73999999999999999
aF0.31
aF0.040000000000000001
aI2270
aI751
aI-11254
aF-393.75999999999999
aF232.75999999999999
aF-184.91999999999999
aa(lp55
g3
ag4
aI0
aF6.3675920963287354
aF0.91000000000000003
aF0.56999999999999995
aF0.070000000000000007
aI2798
aI-463
aI-16904
aF-385.48000000000002
aF117.76000000000001
aF-194.12
aa(lp56
g3
ag4
aI0
aF6.4952530860900879
aF0.69999999999999996
aF0.80000000000000004
aF0.080000000000000002
aI1785
aI-174
aI-18050
aF-348.68000000000001
aF-32.200000000000003
aF-184.91999999999999
aa(lp57
g3
ag4
aI0
aF6.6137559413909912
aF0.56000000000000005
aF0.98999999999999999
aF0.01
aI3330
aI987
aI-16963
aF-265.88
aF-178.47999999999999
aF-179.40000000000001
aa(lp58
g3
ag4
aI0
aF6.7628951072692871
aF0.29999999999999999
aF1.0600000000000001
aF-0.01
aI2538
aI1796
aI-16067
aF-148.12
aF-287.95999999999998
aF-164.68000000000001
aa(lp59
g3
ag4
aI0
aF6.8854761123657227
aF0.070000000000000007
aF1.03
aF-0.040000000000000001
aI1311
aI1520
aI-11890
aF-20.239999999999998
aF-342.24000000000001
aF-145.36000000000001
aa(lp60
g3
ag4
aI0
aF7.0077750682830811
aF-0.059999999999999998
aF0.95999999999999996
aF-0.080000000000000002
aI792
aI691
aI-4706
aF64.400000000000006
aF-356.04000000000002
aF-133.40000000000001
aa(lp61
g3
ag4
aI0
aF7.1651721000671387
aF-0.16
aF0.89000000000000001
aF-0.070000000000000007
aI-87
aI12
aI1958
aF82.799999999999997
aF-356.04000000000002
aF-127.88
aa(lp62
g3
ag4
aI0
aF7.2613620758056641
aF-0.17000000000000001
aF0.91000000000000003
aF-0.10000000000000001
aI-905
aI1569
aI8067
aF42.32
aF-353.27999999999997
aF-132.47999999999999
aa(lp63
g3
ag4
aI0
aF7.3776350021362305
aF-0.070000000000000007
aF0.97999999999999998
aF-0.059999999999999998
aI-5026
aI1928
aI15552
aF-55.200000000000003
aF-331.19999999999999
aF-157.31999999999999
aa(lp64
g3
ag4
aI0
aF7.5062761306762695
aF0.10000000000000001
aF1.0700000000000001
aF-0.01
aI-4629
aI812
aI20633
aF-194.12
aF-238.28
aF-207
aa(lp65
g3
ag4
aI0
aF7.6314799785614014
aF0.33000000000000002
aF1.0600000000000001
aF0.040000000000000001
aI-5499
aI-996
aI19388
aF-305.44
aF-80.959999999999994
aF-233.68000000000001
aa(lp66
g3
ag4
aI0
aF7.7464621067047119
aF0.58999999999999997
aF0.94999999999999996
aF0.070000000000000007
aI-6290
aI607
aI17557
aF-364.31999999999999
aF91.079999999999998
aF-234.59999999999999
aa(lp67
g3
ag4
aI0
aF7.8953690528869629
aF0.69999999999999996
aF0.69999999999999996
aF0.11
aI-3857
aI1928
aI12105
aF-370.75999999999999
aF165.59999999999999
aF-235.52000000000001
aa(lp68
g3
ag4
aI0
aF8.0076010227203369
aF0.77000000000000002
aF0.46000000000000002
aF0.11
aI-2162
aI1855
aI5325
aF-359.72000000000003
aF278.75999999999999
aF-244.72
aa(lp69
g3
ag4
aI0
aF8.1278529167175293
aF0.80000000000000004
aF0.32000000000000001
aF0.16
aI1029
aI-2961
aI-1408
aF-343.16000000000003
aF318.31999999999999
aF-248.40000000000001
aa(lp70
g3
ag4
aI0
aF8.242772102355957
aF0.85999999999999999
aF0.28000000000000003
aF0.16
aI2663
aI-708
aI-5912
aF-352.36000000000001
aF300.83999999999997
aF-241.03999999999999
aa(lp71
g3
ag4
aI0
aF8.3841049671173096
aF0.92000000000000004
aF0.37
aF0.19
aI4158
aI44
aI-12848
aF-365.24000000000001
aF216.19999999999999
aF-246.56
aa(lp72
g3
ag4
aI0
aF8.4962940216064453
aF0.83999999999999997
aF0.56999999999999995
aF0.17999999999999999
aI4598
aI-2157
aI-16541
aF-367.07999999999998
aF80.040000000000006
aF-227.24000000000001
aa(lp73
g3
ag4
aI0
aF8.6150519847869873
aF0.62
aF0.78000000000000003
aF0.14000000000000001
aI3715
aI-1252
aI-17482
aF-322.92000000000002
aF-83.719999999999999
aF-207
aa(lp74
g3
ag4
aI0
aF8.7604160308837891
aF0.47999999999999998
aF0.94999999999999996
aF0.029999999999999999
aI2496
aI-3811
aI-16717
aF-228.16
aF-215.28
aF-190.44
aa(lp75
g3
ag4
aI0
aF8.8750679492950439
aF0.23000000000000001
aF1.04
aF0.02
aI884
aI-3860
aI-15025
aF-118.68000000000001
aF-306.36000000000001
aF-157.31999999999999
aa(lp76
g3
ag4
aI0
aF8.9950919151306152
aF0.050000000000000003
aF1.02
aF-0.040000000000000001
aI225
aI798
aI-9458
aF-15.640000000000001
aF-342.24000000000001
aF-141.68000000000001
aa(lp77
g3
ag4
aI0
aF9.1314070224761963
aF-0.089999999999999997
aF0.94999999999999996
aF-0.050000000000000003
aI-287
aI2266
aI-2502
aF40.479999999999997
aF-350.51999999999998
aF-139.84
aa(lp78
g3
ag4
aI0
aF9.2526021003723145
aF-0.17999999999999999
aF0.93000000000000005
aF-0.050000000000000003
aI48
aI1082
aI2413
aF40.479999999999997
aF-352.36000000000001
aF-140.75999999999999
aa(lp79
g3
ag4
aI0
aF9.3714330196380615
aF-0.13
aF0.93000000000000005
aF-0.040000000000000001
aI-1440
aI3729
aI7467
aF24.84
aF-347.75999999999999
aF-142.59999999999999
aa(lp80
g3
ag4
aI0
aF9.5164239406585693
aF0.02
aF1.01
aF-0
aI-4472
aI2944
aI16082
aF-44.159999999999997
aF-328.44
aF-165.59999999999999
aa(lp81
g3
ag4
aI0
aF9.6400580406188965
aF0.28000000000000003
aF1.0800000000000001
aF0.040000000000000001
aI-5957
aI2596
aI20072
aF-171.12
aF-248.40000000000001
aF-216.19999999999999
aa(lp82
g3
ag4
aI0
aF9.7364509105682373
aF0.53000000000000003
aF1.0800000000000001
aF0.13
aI-6243
aI-2772
aI21754
aF-287.95999999999998
aF-92
aF-253.91999999999999
aa(lp83
g3
ag4
aI0
aF9.8751709461212158
aF0.68999999999999995
aF0.88
aF0.14000000000000001
aI-5089
aI1134
aI17702
aF-360.63999999999999
aF102.12
aF-243.80000000000001
aa(lp84
g3
ag4
aI0
aF9.9964809417724609
aF0.83999999999999997
aF0.59999999999999998
aF0.17000000000000001
aI-2486
aI2612
aI11189
aF-357.88
aF255.75999999999999
aF-253
aa(lp85
g3
ag4
aI0
aF10.117700099945068
aF0.80000000000000004
aF0.35999999999999999
aF0.17000000000000001
aI226
aI-3256
aI3344
aF-342.24000000000001
aF338.56
aF-248.40000000000001
aa(lp86
g3
ag4
aI0
aF10.243875026702881
aF0.84999999999999998
aF0.23999999999999999
aF0.14999999999999999
aI672
aI-1699
aI-3335
aF-350.51999999999998
aF349.60000000000002
aF-224.47999999999999
aa(lp87
g3
ag4
aI0
aF10.367654085159302
aF0.84999999999999998
aF0.23999999999999999
aF0.14000000000000001
aI2478
aI1484
aI-8938
aF-365.24000000000001
aF302.68000000000001
aF-227.24000000000001
aa(lp88
g3
ag4
aI0
aF10.508795022964478
aF0.88
aF0.35999999999999999
aF0.12
aI2784
aI-1859
aI-12526
aF-371.68000000000001
aF193.19999999999999
aF-234.59999999999999
aa(lp89
g3
ag4
aI0
aF10.63129997253418
aF0.80000000000000004
aF0.54000000000000004
aF0.050000000000000003
aI4636
aI-3278
aI-17747
aF-366.16000000000003
aF53.359999999999999
aF-212.52000000000001
aa(lp90
g3
ag4
aI0
aF10.747596025466919
aF0.60999999999999999
aF0.79000000000000004
aF0.040000000000000001
aI3045
aI-470
aI-20286
aF-307.27999999999997
aF-118.68000000000001
aF-192.28
aa(lp91
g3
ag4
aI0
aF10.890175104141235
aF0.48999999999999999
aF1.02
aF-0.01
aI2372
aI203
aI-16585
aF-188.59999999999999
aF-247.47999999999999
aF-185.84
aa(lp92
g3
ag4
aI0
aF11.00622296333313
aF0.27000000000000002
aF1.0700000000000001
aF-0.050000000000000003
aI3193
aI3003
aI-11957
aF-77.280000000000001
aF-317.39999999999998
aF-167.44
aa(lp93
g3
ag4
aI0
aF11.142755031585693
aF0.089999999999999997
aF1.04
aF-0.059999999999999998
aI1363
aI3302
aI-6696
aF7.3600000000000003
aF-344.07999999999998
aF-143.52000000000001
aa(lp94
g3
ag4
aI0
aF11.243933916091919
aF-0.02
aF0.95999999999999996
aF-0.080000000000000002
aI-300
aI592
aI-1003
aF33.119999999999997
aF-350.51999999999998
aF-139.84
aa(lp95
g3
ag4
aI0
aF11.373776912689209
aF-0.11
aF0.93999999999999995
aF-0.089999999999999997
aI-1761
aI-642
aI3194
aF34.039999999999999
aF-350.51999999999998
aF-146.28
aa(lp96
g3
ag4
aI0
aF11.509021997451782
aF-0.050000000000000003
aF0.95999999999999996
aF-0.070000000000000007
aI-2485
aI801
aI7939
aF1.8400000000000001
aF-341.31999999999999
aF-157.31999999999999
aa(lp97
g3
ag4
aI0
aF11.647753953933716
aF0.17000000000000001
aF1.0700000000000001
aF-0
aI-5306
aI5443
aI18580
aF-79.120000000000005
aF-305.44
aF-198.72
aa(lp98
g3
ag4
aI0
aF11.740140914916992
aF0.40999999999999998
aF1.1299999999999999
aF0.10000000000000001
aI-10194
aI1075
aI24983
aF-210.68000000000001
aF-186.75999999999999
aF-261.27999999999997
aa(lp99
g3
ag4
aI0
aF11.890388011932373
aF0.67000000000000004
aF1.03
aF0.19
aI-8971
aI-3518
aI24298
aF-323.83999999999997
aF37.719999999999999
aF-285.19999999999999
aa(lp100
g3
ag4
aI0
aF12.01373291015625
aF0.68999999999999995
aF0.70999999999999996
aF0.19
aI-4880
aI1608
aI15717
aF-353.27999999999997
aF246.56
aF-264.04000000000002
aa(lp101
g3
ag4
aI0
aF12.141626119613647
aF0.69999999999999996
aF0.39000000000000001
aF0.22
aI-2972
aI1425
aI6138
aF-319.24000000000001
aF361.56
aF-270.48000000000002
aa(lp102
g3
ag4
aI0
aF12.285288095474243
aF0.67000000000000004
aF0.19
aF0.20999999999999999
aI-299
aI-1529
aI-1629
aF-309.12
aF385.48000000000002
aF-269.56
aa(lp103
g3
ag4
aI0
aF12.381454944610596
aF0.71999999999999997
aF0.17999999999999999
aF0.17999999999999999
aI2682
aI-46
aI-9905
aF-331.19999999999999
aF339.48000000000002
aF-267.72000000000003
aa(lp104
g3
ag4
aI0
aF12.509170055389404
aF0.72999999999999998
aF0.29999999999999999
aF0.19
aI6042
aI-1910
aI-15377
aF-348.68000000000001
aF212.52000000000001
aF-276
aa(lp105
g3
ag4
aI0
aF12.628807067871094
aF0.76000000000000001
aF0.60999999999999999
aF0.14000000000000001
aI7493
aI-2418
aI-20694
aF-337.63999999999999
aF26.68
aF-259.44
aa(lp106
g3
ag4
aI0
aF12.751461982727051
aF0.58999999999999997
aF0.93000000000000005
aF0.12
aI5907
aI-1094
aI-21436
aF-260.36000000000001
aF-152.72
aF-226.31999999999999
aa(lp107
g3
ag4
aI0
aF12.892965078353882
aF0.40000000000000002
aF1.0600000000000001
aF0.040000000000000001
aI5316
aI-869
aI-19672
aF-119.59999999999999
aF-287.04000000000002
aF-186.75999999999999
aa(lp108
g3
ag4
aI0
aF13.013858079910278
aF0.14999999999999999
aF1.0700000000000001
aF-0.02
aI3291
aI-2274
aI-15781
aF27.600000000000001
aF-344.07999999999998
aF-142.59999999999999
aa(lp109
g3
ag4
aI0
aF13.136634111404419
aF-0.059999999999999998
aF0.98999999999999999
aF-0.059999999999999998
aI782
aI-130
aI-7304
aF78.200000000000003
aF-351.44
aF-133.40000000000001
aa(lp110
g3
ag4
aI0
aF13.250340938568115
aF-0.19
aF0.89000000000000001
aF-0.089999999999999997
aI951
aI1546
aI528
aF135.24000000000001
aF-351.44
aF-123.28
aa(lp111
g3
ag4
aI0
aF13.367721080780029
aF-0.19
aF0.88
aF-0.080000000000000002
aI146
aI-831
aI6785
aF121.44
aF-355.12
aF-115
aa(lp112
g3
ag4
aI0
aF13.521529912948608
aF-0.14999999999999999
aF0.93000000000000005
aF-0.070000000000000007
aI-2400
aI-1568
aI14974
aF40.479999999999997
aF-355.12
aF-125.12
aa(lp113
g3
ag4
aI0
aF13.624032974243164
aF0.050000000000000003
aF1.1000000000000001
aF-0.01
aI-6179
aI5909
aI22755
aF-109.48
aF-301.75999999999999
aF-165.59999999999999
aa(lp114
g3
ag4
aI0
aF13.770153999328613
aF0.41999999999999998
aF1.1100000000000001
aF0.070000000000000007
aI-9989
aI7794
aI24246
aF-250.24000000000001
aF-152.72
aF-244.72
aa(lp115
g3
ag4
aI0
aF13.892831087112427
aF0.68999999999999995
aF0.93000000000000005
aF0.20000000000000001
aI-8582
aI-355
aI17955
aF-322.92000000000002
aF57.039999999999999
aF-294.39999999999998
aa(lp116
g3
ag4
aI0
aF14.001358032226562
aF0.81999999999999995
aF0.68999999999999995
aF0.23000000000000001
aI-5889
aI-1920
aI12751
aF-350.51999999999998
aF228.16
aF-269.56
aa(lp117
g3
ag4
aI0
aF14.145457983016968
aF0.80000000000000004
aF0.42999999999999999
aF0.17000000000000001
aI-2355
aI1498
aI5767
aF-345
aF328.44
aF-244.72
aa(lp118
g3
ag4
aI0
aF14.253901958465576
aF0.79000000000000004
aF0.26000000000000001
aF0.16
aI-250
aI-921
aI-468
aF-338.56
aF357.88
aF-243.80000000000001
aa(lp119
g3
ag4
aI0
aF14.370299100875854
aF0.84999999999999998
aF0.23000000000000001
aF0.13
aI2309
aI-133
aI-7584
aF-351.44
aF317.39999999999998
aF-239.19999999999999
aa(lp120
g3
ag4
aI0
aF14.521359920501709
aF0.88
aF0.34999999999999998
aF0.16
aI4456
aI-391
aI-11880
aF-368
aF214.36000000000001
aF-246.56
aa(lp121
g3
ag4
aI0
aF14.623718023300171
aF0.82999999999999996
aF0.48999999999999999
aF0.089999999999999997
aI6027
aI-4424
aI-16071
aF-362.48000000000002
aF70.840000000000003
aF-226.31999999999999
aa(lp122
g3
ag4
aI0
aF14.772784948348999
aF0.69999999999999996
aF0.82999999999999996
aF0.070000000000000007
aI3663
aI-3342
aI-20436
aF-350.51999999999998
aF-11.960000000000001
aF-208.84
aa(lp123
g3
ag4
aI0
aF14.903842926025391
aF0.45000000000000001
aF1.02
aF-0.01
aI1991
aI-2580
aI-20602
aF-273.24000000000001
aF-176.63999999999999
aF-166.52000000000001
aa(lp124
g3
ag4
aI0
aF15.026467084884644
aF0.23999999999999999
aF1.0700000000000001
aF-0.070000000000000007
aI2225
aI1937
aI-17366
aF-131.56
aF-299.92000000000002
aF-145.36000000000001
aa(lp125
g3
ag4
aI0
aF15.145344972610474
aF0.040000000000000001
aF1
aF-0.089999999999999997
aI2007
aI558
aI-10562
aF10.119999999999999
aF-349.60000000000002
aF-128.80000000000001
aa(lp126
g3
ag4
aI0
aF15.263986110687256
aF-0.10000000000000001
aF0.93000000000000005
aF-0.070000000000000007
aI-524
aI-571
aI-2122
aF91.079999999999998
aF-355.12
aF-116.84
aa(lp127
g3
ag4
aI0
aF15.387623071670532
aF-0.20999999999999999
aF0.89000000000000001
aF-0.12
aI-247
aI458
aI3276
aF101.2
aF-355.12
aF-115.92
aa(lp128
g3
ag4
aI0
aF15.501517057418823
aF-0.20000000000000001
aF0.89000000000000001
aF-0.11
aI-555
aI42
aI6808
aF65.319999999999993
aF-354.19999999999999
aF-120.52
aa(lp129
g3
ag4
aI0
aF15.651647090911865
aF-0.080000000000000002
aF0.94999999999999996
aF-0.10000000000000001
aI-3653
aI2354
aI15464
aF-21.16
aF-339.48000000000002
aF-139.84
aa(lp130
g3
ag4
aI0
aF15.747661113739014
aF0.16
aF1.0800000000000001
aF-0.080000000000000002
aI-5457
aI5681
aI19955
aF-157.31999999999999
aF-267.72000000000003
aF-184.91999999999999
aa(lp131
g3
ag4
aI0
aF15.898967981338501
aF0.5
aF1.1100000000000001
aF-0.01
aI-7499
aI1873
aI22368
aF-276.92000000000002
aF-120.52
aF-242.88
aa(lp132
g3
ag4
aI0
aF16.011454105377197
aF0.68999999999999995
aF0.93000000000000005
aF0.11
aI-4678
aI-3593
aI19876
aF-356.04000000000002
aF73.599999999999994
aF-253
aa(lp133
g3
ag4
aI0
aF16.140017032623291
aF0.68000000000000005
aF0.65000000000000002
aF0.11
aI-4555
aI180
aI14779
aF-370.75999999999999
aF253
aF-234.59999999999999
aa(lp134
g3
ag4
aI0
aF16.255293130874634
aF0.69999999999999996
aF0.38
aF0.10000000000000001
aI-1771
aI2773
aI5339
aF-344.07999999999998
aF354.19999999999999
aF-237.36000000000001
aa(lp135
g3
ag4
aI0
aF16.396583080291748
aF0.72999999999999998
aF0.22
aF0.12
aI171
aI-1646
aI-2129
aF-340.39999999999998
aF367.07999999999998
aF-230.91999999999999
aa(lp136
g3
ag4
aI0
aF16.511445045471191
aF0.72999999999999998
aF0.20000000000000001
aF0.12
aI2117
aI-1117
aI-9205
aF-363.39999999999998
aF306.36000000000001
aF-222.63999999999999
aa(lp137
g3
ag4
aI0
aF16.633928060531616
aF0.81000000000000005
aF0.31
aF0.10000000000000001
aI4039
aI-157
aI-13249
aF-373.51999999999998
aF186.75999999999999
aF-231.84
aa(lp138
g3
ag4
aI0
aF16.773899078369141
aF0.84999999999999998
aF0.62
aF0.11
aI5518
aI-691
aI-19228
aF-369.83999999999997
aF110.40000000000001
aF-232.75999999999999
aa(lp139
g3
ag4
aI0
aF16.887696981430054
aF0.66000000000000003
aF0.81000000000000005
aF0.11
aI4517
aI-3617
aI-17578
aF-323.83999999999997
aF-66.239999999999995
aF-218.96000000000001
aa(lp140
g3
ag4
aI0
aF17.006484031677246
aF0.53000000000000003
aF0.93000000000000005
aF-0.040000000000000001
aI2680
aI-4234
aI-16803
aF-239.19999999999999
aF-213.44
aF-180.31999999999999
aa(lp141
g3
ag4
aI0
aF17.161379098892212
aF0.28000000000000003
aF1.04
aF-0.059999999999999998
aI2571
aI604
aI-11605
aF-132.47999999999999
aF-297.16000000000003
aF-151.80000000000001
aa(lp142
g3
ag4
aI0
aF17.286579132080078
aF0.070000000000000007
aF1.05
aF-0.070000000000000007
aI1680
aI1113
aI-8636
aF-34.039999999999999
aF-338.56
aF-125.12
aa(lp143
g3
ag4
aI0
aF17.413828134536743
aF-0.059999999999999998
aF0.94999999999999996
aF-0.12
aI1301
aI1720
aI-4665
aF36.799999999999997
aF-353.27999999999997
aF-109.48
aa(lp144
g3
ag4
aI0
aF17.50517201423645
aF-0.13
aF0.88
aF-0.16
aI-586
aI95
aI-43
aF66.239999999999995
aF-356.95999999999998
aF-102.12
aa(lp145
g3
ag4
aI0
aF17.651427030563354
aF-0.14999999999999999
aF0.89000000000000001
aF-0.12
aI-2056
aI611
aI5506
aF51.520000000000003
aF-355.12
aF-116.84
aa(lp146
g3
ag4
aI0
aF17.776488065719604
aF-0.059999999999999998
aF1.03
aF-0.13
aI-4492
aI735
aI14175
aF-24.84
aF-335.80000000000001
aF-142.59999999999999
aa(lp147
g3
ag4
aI0
aF17.89014196395874
aF0.19
aF1.1000000000000001
aF-0.089999999999999997
aI-5280
aI6148
aI21437
aF-158.24000000000001
aF-259.44
aF-198.72
aa(lp148
g3
ag4
aI0
aF18.005420923233032
aF0.39000000000000001
aF1.1000000000000001
aF0.059999999999999998
aI-9364
aI2548
aI20429
aF-277.83999999999997
aF-101.2
aF-261.27999999999997
aa(lp149
g3
ag4
aI0
aF18.150385141372681
aF0.58999999999999997
aF0.90000000000000002
aF0.13
aI-9917
aI240
aI19703
aF-335.80000000000001
aF94.760000000000005
aF-287.95999999999998
aa(lp150
g3
ag4
aI0
aF18.267905950546265
aF0.70999999999999996
aF0.65000000000000002
aF0.17000000000000001
aI-6167
aI1486
aI14568
aF-335.80000000000001
aF276.92000000000002
aF-284.27999999999997
aa(lp151
g3
ag4
aI0
aF18.400155067443848
aF0.75
aF0.40000000000000002
aF0.20999999999999999
aI-2459
aI-117
aI6887
aF-310.95999999999998
aF374.44
aF-279.68000000000001
aa(lp152
g3
ag4
aI0
aF18.51384711265564
aF0.73999999999999999
aF0.17999999999999999
aF0.20000000000000001
aI264
aI-1662
aI-327
aF-306.36000000000001
aF390.07999999999998
aF-272.31999999999999
aa(lp153
g3
ag4
aI0
aF18.63648796081543
aF0.75
aF0.14000000000000001
aF0.22
aI3727
aI-1235
aI-9090
aF-20961.279999999999
aF-14602.24
aF296.24000000000001
aa(lp154
g3
ag4
aI0
aF18.774986982345581
aF0.92000000000000004
aF0.31
aF0.20999999999999999
aI7409
aI-1991
aI-17269
aF-347.75999999999999
aF265.88
aF-266.80000000000001
aa(lp155
g3
ag4
aI0
aF18.893959045410156
aF0.80000000000000004
aF0.60999999999999999
aF0.16
aI6330
aI-1788
aI-20862
aF-361.56
aF84.640000000000001
aF-250.24000000000001
aa(lp156
g3
ag4
aI0
aF19.007538080215454
aF0.67000000000000004
aF0.82999999999999996
aF0.059999999999999998
aI5096
aI121
aI-20135
aF-298.07999999999998
aF-113.16
aF-224.47999999999999
aa(lp157
g3
ag4
aI0
aF19.147589921951294
aF0.45000000000000001
aF1.01
aF0.070000000000000007
aI3621
aI-2027
aI-17000
aF-176.63999999999999
aF-254.84
aF-197.80000000000001
aa(lp158
g3
ag4
aI0
aF19.270183086395264
aF0.23000000000000001
aF1.02
aF-0
aI1943
aI-3217
aI-10540
aF-62.560000000000002
aF-327.51999999999998
aF-162.84
aa(lp159
g3
ag4
aI0
aF19.410335063934326
aF0.10000000000000001
aF0.96999999999999997
aF-0.080000000000000002
aI308
aI535
aI-3793
aF5.5199999999999996
aF-350.51999999999998
aF-144.44
aa(lp160
g3
ag4
aI0
aF19.533796072006226
aF-0.040000000000000001
aF0.94999999999999996
aF-0.080000000000000002
aI685
aI1693
aI991
aF23
aF-351.44
aF-140.75999999999999
aa(lp161
g3
ag4
aI0
aF19.656542062759399
aF-0.10000000000000001
aF0.94999999999999996
aF-0.10000000000000001
aI-303
aI999
aI2676
aF17.48
aF-348.68000000000001
aF-142.59999999999999
aa(lp162
g3
ag4
aI0
aF19.777597904205322
aF-0.01
aF0.93000000000000005
aF-0.089999999999999997
aI-1267
aI409
aI6834
aF-22.079999999999998
aF-343.16000000000003
aF-148.12
aa(lp163
g3
ag4
aI0
aF19.893815994262695
aF0.10000000000000001
aF1.02
aF-0.059999999999999998
aI-4375
aI2483
aI14411
aF-110.40000000000001
aF-299
aF-182.16
aa(lp164
g3
ag4
aI0
aF20.016515016555786
aF0.28000000000000003
aF1.0700000000000001
aF0
aI-6938
aI4810
aI19517
aF-221.72
aF-191.36000000000001
aF-240.12
aa(lp165
g3
ag4
aI0
aF20.138857126235962
aF0.53000000000000003
aF1.02
aF0.13
aI-7765
aI-3058
aI19941
aF-315.56
aF-14.720000000000001
aF-277.83999999999997
aa(lp166
g3
ag4
aI0
aF20.256469011306763
aF0.67000000000000004
aF0.76000000000000001
aF0.14999999999999999
aI-5754
aI-669
aI14711
aF-351.44
aF154.56
aF-278.75999999999999
aa(lp167
g3
ag4
aI0
aF20.404002904891968
aF0.82999999999999996
aF0.52000000000000002
aF0.20000000000000001
aI-5417
aI-665
aI12113
aF-347.75999999999999
aF233.68000000000001
aF-284.27999999999997
aa(lp168
g3
ag4
aI0
aF20.525321006774902
aF0.77000000000000002
aF0.33000000000000002
aF0.20999999999999999
aI-1498
aI-1124
aI6062
aF-331.19999999999999
aF346.83999999999997
aF-272.31999999999999
aa(lp169
g3
ag4
aI0
aF20.634361028671265
aF0.76000000000000001
aF0.14999999999999999
aF0.22
aI353
aI-265
aI-2934
aF-320.16000000000003
aF385.48000000000002
aF-264.95999999999998
aa(lp170
g3
ag4
aI0
aF20.7777419090271
aF0.79000000000000004
aF0.17999999999999999
aF0.17000000000000001
aI3137
aI-1323
aI-9366
aF-333.95999999999998
aF345.92000000000002
aF-263.12
aa(lp171
g3
ag4
aI0
aF20.8940589427948
aF0.87
aF0.27000000000000002
aF0.14000000000000001
aI3620
aI-3483
aI-12251
aF-368
aF231.84
aF-252.08000000000001
aa(lp172
g3
ag4
aI0
aF21.011492013931274
aF0.88
aF0.48999999999999999
aF0.080000000000000002
aI4850
aI-288
aI-15148
aF-372.60000000000002
aF94.760000000000005
aF-232.75999999999999
aa(lp173
g3
ag4
aI0
aF21.156400918960571
aF0.69999999999999996
aF0.68000000000000005
aF0.089999999999999997
aI3305
aI1450
aI-14984
aF-333.95999999999998
aF-51.520000000000003
aF-222.63999999999999
aa(lp174
g3
ag4
aI0
aF21.266417026519775
aF0.64000000000000001
aF0.89000000000000001
aF0.029999999999999999
aI3240
aI-1821
aI-15571
aF-262.19999999999999
aF-173.88
aF-205.16
aa(lp175
g3
ag4
aI0
aF21.411772966384888
aF0.40000000000000002
aF0.96999999999999997
aF-0.029999999999999999
aI2728
aI-4639
aI-13691
aF-163.75999999999999
aF-273.24000000000001
aF-159.16
aa(lp176
g3
ag4
aI0
aF21.526416063308716
aF0.19
aF1.04
aF-0.040000000000000001
aI1023
aI-1421
aI-10234
aF-69
aF-323.83999999999997
aF-138.91999999999999
aa(lp177
g3
ag4
aI0
aF21.670346021652222
aF0.02
aF0.98999999999999999
aF-0.089999999999999997
aI1168
aI1684
aI-4564
aF-5.5199999999999996
aF-346.83999999999997
aF-129.72
aa(lp178
g3
ag4
aI0
aF21.790337085723877
aF-0.050000000000000003
aF0.93999999999999995
aF-0.11
aI802
aI2693
aI97
aF16.559999999999999
aF-350.51999999999998
aF-118.68000000000001
aa(lp179
g3
ag4
aI0
aF21.902801990509033
aF-0.17999999999999999
aF0.93000000000000005
aF-0.14000000000000001
aI-824
aI-39
aI1765
aF9.1999999999999993
aF-350.51999999999998
aF-120.52
aa(lp180
g3
ag4
aI0
aF22.016633033752441
aF-0.19
aF0.93999999999999995
aF-0.14000000000000001
aI22
aI-888
aI1056
aF7.3600000000000003
aF-347.75999999999999
aF-128.80000000000001
aa(lp181
g3
ag4
aI0
aF22.130209922790527
aF-0.20999999999999999
aF0.93000000000000005
aF-0.16
aI548
aI-351
aI698
aF-5.5199999999999996
aF-346.83999999999997
aF-124.2
aa(lp182
g3
ag4
aI0
aF22.27165412902832
aF-0.20999999999999999
aF0.93999999999999995
aF-0.17000000000000001
aI640
aI685
aI308
aF-11.039999999999999
aF-342.24000000000001
aF-121.44
aa(lp183
g3
ag4
aI0
aF22.384083986282349
aF-0.20999999999999999
aF0.93999999999999995
aF-0.16
aI334
aI90
aI-169
aF-12.880000000000001
aF-346.83999999999997
aF-120.52
aa(lp184
g3
ag4
aI0
aF22.531592130661011
aF-0.19
aF0.93000000000000005
aF-0.19
aI369
aI431
aI83
aF-11.039999999999999
aF-348.68000000000001
aF-120.52
aa(lp185
g3
ag4
aI0
aF22.621248006820679
aF-0.19
aF0.93000000000000005
aF-0.17999999999999999
aI129
aI549
aI212
aF-9.1999999999999993
aF-345.92000000000002
aF-118.68000000000001
aa(lp186
g3
ag4
aI0
aF22.740298986434937
aF-0.20000000000000001
aF0.92000000000000004
aF-0.19
aI-186
aI609
aI-115
aF-9.1999999999999993
aF-344.07999999999998
aF-115.92
aa(lp187
g3
ag4
aI0
aF22.881416082382202
aF-0.19
aF0.93000000000000005
aF-0.17999999999999999
aI6
aI461
aI24
aF-6.4400000000000004
aF-345.92000000000002
aF-118.68000000000001
aa(lp188
g3
ag4
aI0
aF22.994966983795166
aF-0.19
aF0.93000000000000005
aF-0.19
aI-132
aI-218
aI235
aF-5.5199999999999996
aF-347.75999999999999
aF-117.76000000000001
aa(lp189
g3
ag4
aI0
aF23.127846002578735
aF-0.19
aF0.93000000000000005
aF-0.19
aI-551
aI286
aI415
aF-9.1999999999999993
aF-344.07999999999998
aF-119.59999999999999
aa(lp190
g3
ag4
aI0
aF23.227666139602661
aF-0.17999999999999999
aF0.92000000000000004
aF-0.17999999999999999
aI-127
aI526
aI271
aF-11.960000000000001
aF-343.16000000000003
aF-124.2
aa(lp191
g3
ag4
aI0
aF23.347753047943115
aF-0.17999999999999999
aF0.93000000000000005
aF-0.17999999999999999
aI-157
aI230
aI-33
aF-11.960000000000001
aF-344.07999999999998
aF-125.12
aa(lp192
g3
ag4
aI0
aF23.4878830909729
aF-0.17999999999999999
aF0.93000000000000005
aF-0.19
aI-131
aI353
aI58
aF-10.119999999999999
aF-344.07999999999998
aF-126.95999999999999
aa(lp193
g3
ag4
aI0
aF23.608798980712891
aF-0.17000000000000001
aF0.93999999999999995
aF-0.19
aI-397
aI984
aI8
aF-10.119999999999999
aF-342.24000000000001
aF-130.63999999999999
aa(lp194
g3
ag4
aI0
aF23.730164051055908
aF-0.17000000000000001
aF0.93000000000000005
aF-0.17999999999999999
aI-172
aI328
aI359
aF-11.039999999999999
aF-341.31999999999999
aF-133.40000000000001
aa(lp195
g3
ag4
aI0
aF23.853919982910156
aF-0.16
aF0.93999999999999995
aF-0.17999999999999999
aI89
aI-444
aI375
aF-14.720000000000001
aF-343.16000000000003
aF-130.63999999999999
aa(lp196
g3
ag4
aI0
aF23.966401100158691
aF-0.17000000000000001
aF0.93999999999999995
aF-0.17999999999999999
aI-454
aI-282
aI13
aF-16.559999999999999
aF-342.24000000000001
aF-131.56
aa(lp197
g3
ag4
aI0
aF24.087464094161987
aF-0.17000000000000001
aF0.93999999999999995
aF-0.17000000000000001
aI-374
aI-21
aI418
aF-15.640000000000001
aF-342.24000000000001
aF-136.16
aa(lp198
g3
ag4
aI0
aF24.209062099456787
aF-0.16
aF0.93999999999999995
aF-0.17000000000000001
aI-206
aI-84
aI521
aF-20.239999999999998
aF-335.80000000000001
aF-136.16
aa(lp199
g3
ag4
aI0
aF24.326523065567017
aF-0.16
aF0.94999999999999996
aF-0.14999999999999999
aI-383
aI-263
aI-172
aF-21.16
aF-333.95999999999998
aF-141.68000000000001
aa(lp200
g3
ag4
aI0
aF24.458914995193481
aF-0.16
aF0.93999999999999995
aF-0.17000000000000001
aI62
aI136
aI-128
aF-21.16
aF-334.88
aF-140.75999999999999
aa(lp201
g3
ag4
aI0
aF24.581494092941284
aF-0.14999999999999999
aF0.93999999999999995
aF-0.16
aI115
aI-50
aI115
aF-19.32
aF-334.88
aF-138
aa(lp202
g3
ag4
aI0
aF24.705255031585693
aF-0.14999999999999999
aF0.93999999999999995
aF-0.16
aI-30
aI-358
aI26
aF-21.16
aF-336.72000000000003
aF-136.16
aa(lp203
g3
ag4
aI0
aF24.825048923492432
aF-0.16
aF0.94999999999999996
aF-0.16
aI-211
aI-156
aI-66
aF-23
aF-336.72000000000003
aF-138
aa(lp204
g3
ag4
aI0
aF24.964056015014648
aF-0.16
aF0.94999999999999996
aF-0.16
aI-159
aI-291
aI41
aF-22.079999999999998
aF-334.88
aF-138.91999999999999
aa(lp205
g3
ag4
aI0
aF25.096453905105591
aF-0.16
aF0.94999999999999996
aF-0.16
aI-309
aI-487
aI-109
aF-23
aF-334.88
aF-138.91999999999999
aa.