(lp1
(lp2
S'Morgan'
p3
aS'shoulder'
p4
aI0
aF0.00012493133544921875
aF0.35999999999999999
aF-0.98999999999999999
aF-0.14999999999999999
aI59
aI-123
aI93
aF126.95999999999999
aF605.36000000000001
aF86.480000000000004
aa(lp5
g3
ag4
aI0
aF0.23621702194213867
aF0.33000000000000002
aF-0.98999999999999999
aF-0.14999999999999999
aI-335
aI-396
aI921
aF133.40000000000001
aF603.51999999999998
aF83.719999999999999
aa(lp6
g3
ag4
aI0
aF0.35970687866210938
aF0.33000000000000002
aF-1.02
aF-0.14999999999999999
aI-187
aI-195
aI325
aF140.75999999999999
aF599.84000000000003
aF86.480000000000004
aa(lp7
g3
ag4
aI0
aF0.52036690711975098
aF0.34000000000000002
aF-1.0800000000000001
aF-0.14999999999999999
aI1092
aI446
aI-102
aF142.59999999999999
aF599.84000000000003
aF84.640000000000001
aa(lp8
g3
ag4
aI0
aF0.61944389343261719
aF0.34999999999999998
aF-1.1200000000000001
aF-0.13
aI3048
aI680
aI-1036
aF135.24000000000001
aF607.20000000000005
aF73.599999999999994
aa(lp9
g3
ag4
aI0
aF0.72021698951721191
aF0.34999999999999998
aF-1.1000000000000001
aF-0.10000000000000001
aI4072
aI-221
aI-1356
aF126.04000000000001
aF621.91999999999996
aF51.520000000000003
aa(lp10
g3
ag4
aI0
aF0.8364260196685791
aF0.35999999999999999
aF-1.0900000000000001
aF-0.050000000000000003
aI4014
aI179
aI-13
aF118.68000000000001
aF637.55999999999995
aF16.559999999999999
aa(lp11
g3
ag4
aI0
aF0.95880579948425293
aF0.38
aF-1.0800000000000001
aF0.01
aI2288
aI-834
aI968
aF122.36
aF643.08000000000004
aF-11.960000000000001
aa(lp12
g3
ag4
aI0
aF1.125079870223999
aF0.37
aF-1.0800000000000001
aF0.050000000000000003
aI-1106
aI-1851
aI1562
aF411.24000000000001
aF0.92000000000000004
aF2037.8
aa(lp13
g3
ag4
aI0
aF1.2194499969482422
aF0.34000000000000002
aF-1.0800000000000001
aF0.02
aI-4648
aI-988
aI1782
aF152.72
aF633.88
aF-4.5999999999999996
aa(lp14
g3
ag4
aI0
aF1.3272149562835693
aF0.31
aF-1.02
aF-0.050000000000000003
aI-7438
aI-3278
aI1353
aF174.80000000000001
aF620.08000000000004
aF40.479999999999997
aa(lp15
g3
ag4
aI0
aF1.4513130187988281
aF0.33000000000000002
aF-0.77000000000000002
aF-0.11
aI-7182
aI4348
aI5667
aF207.91999999999999
aF582.36000000000001
aF97.519999999999996
aa(lp16
g3
ag4
aI0
aF1.5749759674072266
aF0.33000000000000002
aF-0.68999999999999995
aF-0.050000000000000003
aI2846
aI434
aI-1860
aF216.19999999999999
aF563.96000000000004
aF119.59999999999999
aa(lp17
g3
ag4
aI0
aF1.7662768363952637
aF0.29999999999999999
aF-0.75
aF-0.080000000000000002
aI4361
aI1145
aI-6343
aF183.08000000000001
aF586.03999999999996
aF99.359999999999999
aa(lp18
g3
ag4
aI0
aF1.9192748069763184
aF0.34999999999999998
aF-0.83999999999999997
aF-0.10000000000000001
aI1692
aI-622
aI-2907
aF130.63999999999999
aF618.24000000000001
aF70.840000000000003
aa(lp19
g3
ag4
aI0
aF2.0194799900054932
aF0.37
aF-0.93999999999999995
aF-0.13
aI-380
aI-161
aI-1464
aF110.40000000000001
aF625.60000000000002
aF61.640000000000001
aa(lp20
g3
ag4
aI0
aF2.1198790073394775
aF0.40000000000000002
aF-1.01
aF-0.17000000000000001
aI-576
aI2182
aI-453
aF101.2
aF621.91999999999996
aF65.319999999999993
aa(lp21
g3
ag4
aI0
aF2.2204959392547607
aF0.45000000000000001
aF-1.05
aF-0.19
aI557
aI1832
aI-190
aF90.159999999999997
aF621
aF71.760000000000005
aa(lp22
g3
ag4
aI0
aF2.3198699951171875
aF0.47999999999999998
aF-1.04
aF-0.16
aI1148
aI-108
aI652
aF84.640000000000001
aF622.84000000000003
aF66.239999999999995
aa(lp23
g3
ag4
aI0
aF2.4311540126800537
aF0.46000000000000002
aF-1.05
aF-0.13
aI-447
aI-1441
aI887
aF97.519999999999996
aF623.75999999999999
aF65.319999999999993
aa(lp24
g3
ag4
aI0
aF2.5539369583129883
aF0.46000000000000002
aF-1.0600000000000001
aF-0.12
aI-792
aI-247
aI1079
aF100.28
aF622.84000000000003
aF65.319999999999993
aa(lp25
g3
ag4
aI0
aF2.6773688793182373
aF0.44
aF-1.05
aF-0.14000000000000001
aI-514
aI-786
aI887
aF111.31999999999999
aF618.24000000000001
aF70.840000000000003
aa(lp26
g3
ag4
aI0
aF2.8194990158081055
aF0.41999999999999998
aF-1.0900000000000001
aF-0.14000000000000001
aI110
aI-46
aI174
aF122.36
aF618.24000000000001
aF72.680000000000007
aa(lp27
g3
ag4
aI0
aF2.9361088275909424
aF0.41999999999999998
aF-1.1200000000000001
aF-0.14999999999999999
aI1703
aI1577
aI-882
aF118.68000000000001
aF615.48000000000002
aF67.159999999999997
aa(lp28
g3
ag4
aI0
aF3.0737199783325195
aF0.41999999999999998
aF-1.1000000000000001
aF-0.13
aI2601
aI149
aI-837
aF106.72
aF624.67999999999995
aF48.759999999999998
aa(lp29
g3
ag4
aI0
aF3.2198688983917236
aF0.45000000000000001
aF-1.1000000000000001
aF-0.11
aI2047
aI-755
aI131
aF103.04000000000001
aF637.55999999999995
aF32.200000000000003
aa(lp30
g3
ag4
aI0
aF3.3199658393859863
aF0.46999999999999997
aF-1.1200000000000001
aF-0.10000000000000001
aI563
aI-1279
aI499
aF109.48
aF638.48000000000002
aF18.399999999999999
aa(lp31
g3
ag4
aI0
aF3.4201669692993164
aF0.42999999999999999
aF-1.1200000000000001
aF-0.080000000000000002
aI66
aI1378
aI2905
aF121.44
aF637.55999999999995
aF13.800000000000001
aa(lp32
g3
ag4
aI0
aF3.5211219787597656
aF0.35999999999999999
aF-1.02
aF-0.070000000000000007
aI-2885
aI17
aI5171
aF141.68000000000001
aF632.96000000000004
aF19.32
aa(lp33
g3
ag4
aI0
aF3.6400859355926514
aF0.27000000000000002
aF-0.77000000000000002
aF-0.059999999999999998
aI-5289
aI-3206
aI7727
aF193.19999999999999
aF609.03999999999996
aF47.840000000000003
aa(lp34
g3
ag4
aI0
aF3.7600078582763672
aF0.29999999999999999
aF-0.65000000000000002
aF0.050000000000000003
aI3968
aI1056
aI-4214
aF241.03999999999999
aF586.03999999999996
aF71.760000000000005
aa(lp35
g3
ag4
aI0
aF3.9194419384002686
aF0.32000000000000001
aF-0.72999999999999998
aF0.040000000000000001
aI4206
aI1411
aI-7804
aF180.31999999999999
aF625.60000000000002
aF34.960000000000001
aa(lp36
g3
ag4
aI0
aF4.0194199085235596
aF0.33000000000000002
aF-0.95999999999999996
aF0
aI1546
aI-1999
aI-3609
aF127.88
aF643.08000000000004
aF3.6800000000000002
aa(lp37
g3
ag4
aI0
aF4.1198928356170654
aF0.34999999999999998
aF-1.04
aF-0.040000000000000001
aI-236
aI78
aI-533
aF106.72
aF644.91999999999996
aF-1.8400000000000001
aa(lp38
g3
ag4
aI0
aF4.252316951751709
aF0.40000000000000002
aF-1.05
aF-0.050000000000000003
aI-586
aI2177
aI-1220
aF96.599999999999994
aF642.15999999999997
aF3.6800000000000002
aa(lp39
g3
ag4
aI0
aF4.3661539554595947
aF0.48999999999999999
aF-1.03
aF-0.040000000000000001
aI-702
aI1717
aI-932
aF78.200000000000003
aF644.91999999999996
aF11.039999999999999
aa(lp40
g3
ag4
aI0
aF4.52016282081604
aF0.48999999999999999
aF-1.02
aF-0.040000000000000001
aI47
aI-1064
aI505
aF73.599999999999994
aF644
aF12.880000000000001
aa(lp41
g3
ag4
aI0
aF4.6195569038391113
aF0.47999999999999998
aF-1.02
aF-0.029999999999999999
aI-475
aI2268
aI1045
aF82.799999999999997
aF644
aF12.880000000000001
aa(lp42
g3
ag4
aI0
aF4.7536709308624268
aF0.46000000000000002
aF-1.05
aF-0.01
aI145
aI1872
aI535
aF83.719999999999999
aF640.32000000000005
aF18.399999999999999
aa(lp43
g3
ag4
aI0
aF4.8536238670349121
aF0.5
aF-1.1299999999999999
aF0.01
aI86
aI348
aI682
aF88.319999999999993
aF635.72000000000003
aF22.079999999999998
aa(lp44
g3
ag4
aI0
aF4.9837048053741455
aF0.5
aF-1.23
aF0.059999999999999998
aI2429
aI1189
aI-278
aF90.159999999999997
aF641.24000000000001
aF9.1999999999999993
aa(lp45
g3
ag4
aI0
aF5.1203129291534424
aF0.51000000000000001
aF-1.21
aF0.070000000000000007
aI3532
aI327
aI-962
aF83.719999999999999
aF652.27999999999997
aF-14.720000000000001
aa(lp46
g3
ag4
aI0
aF5.219700813293457
aF0.5
aF-1.1699999999999999
aF0.059999999999999998
aI2578
aI-383
aI-144
aF81.879999999999995
aF652.27999999999997
aF-28.52
aa(lp47
g3
ag4
aI0
aF5.3212368488311768
aF0.46999999999999997
aF-1.0800000000000001
aF0.070000000000000007
aI45
aI-598
aI2244
aF83.719999999999999
aF655.96000000000004
aF-46.920000000000002
aa(lp48
g3
ag4
aI0
aF5.4448449611663818
aF0.38
aF-1.02
aF0.059999999999999998
aI-2188
aI-2847
aI3681
aF115
aF651.36000000000001
aF-44.159999999999997
aa(lp49
g3
ag4
aI0
aF5.6199648380279541
aF0.34999999999999998
aF-1
aF0.040000000000000001
aI-5413
aI301
aI5518
aF155.47999999999999
aF638.48000000000002
aF-22.079999999999998
aa(lp50
g3
ag4
aI0
aF5.7197518348693848
aF0.27000000000000002
aF-0.76000000000000001
aF0.050000000000000003
aI-6057
aI-1490
aI5332
aF212.52000000000001
aF611.79999999999995
aF31.280000000000001
aa(lp51
g3
ag4
aI0
aF5.8202118873596191
aF0.29999999999999999
aF-0.70999999999999996
aF0.059999999999999998
aI3522
aI1950
aI-4241
aF221.72
aF608.12
aF45.079999999999998
aa(lp52
g3
ag4
aI0
aF5.9322710037231445
aF0.31
aF-0.78000000000000003
aF0.029999999999999999
aI4701
aI19
aI-6488
aF164.68000000000001
aF634.79999999999995
aF10.119999999999999
aa(lp53
g3
ag4
aI0
aF6.0548059940338135
aF0.37
aF-0.80000000000000004
aF0.029999999999999999
aI3226
aI79
aI-3915
aF136.16
aF647.67999999999995
aF-11.960000000000001
aa(lp54
g3
ag4
aI0
aF6.1788249015808105
aF0.39000000000000001
aF-0.93999999999999995
aF0.059999999999999998
aI414
aI-179
aI-1314
aF100.28
aF655.03999999999996
aF-35.880000000000003
aa(lp55
g3
ag4
aI0
aF6.3195939064025879
aF0.40000000000000002
aF-1
aF0.050000000000000003
aI-1175
aI2084
aI-485
aF87.400000000000006
aF655.03999999999996
aF-40.479999999999997
aa(lp56
g3
ag4
aI0
aF6.4236299991607666
aF0.40999999999999998
aF-1.03
aF0.040000000000000001
aI-1205
aI1331
aI42
aF84.640000000000001
aF656.88
aF-30.359999999999999
aa(lp57
g3
ag4
aI0
aF6.5587418079376221
aF0.39000000000000001
aF-1.04
aF0.080000000000000002
aI-1428
aI947
aI57
aF79.120000000000005
aF651.36000000000001
aF-20.239999999999998
aa(lp58
g3
ag4
aI0
aF6.7202048301696777
aF0.40999999999999998
aF-1.04
aF0.089999999999999997
aI-676
aI2240
aI1168
aF82.799999999999997
aF647.67999999999995
aF-10.119999999999999
aa(lp59
g3
ag4
aI0
aF6.8203709125518799
aF0.44
aF-1.05
aF0.10000000000000001
aI-700
aI-861
aI503
aF83.719999999999999
aF644
aF-5.5199999999999996
aa(lp60
g3
ag4
aI0
aF6.9193220138549805
aF0.44
aF-1.1299999999999999
aF0.13
aI-7
aI-831
aI647
aF91.079999999999998
aF644
aF1.8400000000000001
aa(lp61
g3
ag4
aI0
aF7.0192458629608154
aF0.48999999999999999
aF-1.23
aF0.16
aI1908
aI-574
aI-421
aF91.079999999999998
aF646.75999999999999
aF-7.3600000000000003
aa(lp62
g3
ag4
aI0
aF7.1348128318786621
aF0.47999999999999998
aF-1.21
aF0.14000000000000001
aI1958
aI338
aI-786
aF86.480000000000004
aF654.12
aF-23.920000000000002
aa(lp63
g3
ag4
aI0
aF7.2475500106811523
aF0.45000000000000001
aF-1.1499999999999999
aF0.13
aI-16
aI-1102
aI275
aF84.640000000000001
aF655.03999999999996
aF-33.119999999999997
aa(lp64
g3
ag4
aI0
aF7.3799359798431396
aF0.42999999999999999
aF-1.1100000000000001
aF0.080000000000000002
aI-2812
aI-2896
aI1045
aF86.480000000000004
aF650.44000000000005
aF-23
aa(lp65
g3
ag4
aI0
aF7.5299038887023926
aF0.38
aF-0.97999999999999998
aF0.02
aI-5342
aI1356
aI3361
aF106.72
aF644.91999999999996
aF6.4400000000000004
aa(lp66
g3
ag4
aI0
aF7.6197240352630615
aF0.37
aF-0.85999999999999999
aF0.01
aI-6280
aI736
aI6309
aF147.19999999999999
aF621.91999999999996
aF60.719999999999999
aa(lp67
g3
ag4
aI0
aF7.739987850189209
aF0.28999999999999998
aF-0.68000000000000005
aF0.040000000000000001
aI156
aI-493
aI1490
aF173.88
aF608.12
aF80.959999999999994
aa(lp68
g3
ag4
aI0
aF7.8750829696655273
aF0.29999999999999999
aF-0.68999999999999995
aF0.02
aI5320
aI-3168
aI-6256
aF178.47999999999999
aF609.96000000000004
aF71.760000000000005
aa(lp69
g3
ag4
aI0
aF8.0203628540039062
aF0.33000000000000002
aF-0.81999999999999995
aF0.01
aI4138
aI-322
aI-4944
aF126.95999999999999
aF637.55999999999995
aF31.280000000000001
aa(lp70
g3
ag4
aI0
aF8.1624150276184082
aF0.40000000000000002
aF-0.94999999999999996
aF0.01
aI2333
aI1925
aI-1328
aF92
aF649.51999999999998
aF-0.92000000000000004
aa(lp71
g3
ag4
aI0
aF8.3193860054016113
aF0.42999999999999999
aF-1
aF0.02
aI133
aI868
aI594
aF84.640000000000001
aF651.36000000000001
aF-13.800000000000001
aa(lp72
g3
ag4
aI0
aF8.4196889400482178
aF0.46000000000000002
aF-1.02
aF0.029999999999999999
aI-570
aI-106
aI-135
aF85.560000000000002
aF655.03999999999996
aF-12.880000000000001
aa(lp73
g3
ag4
aI0
aF8.5193068981170654
aF0.42999999999999999
aF-1.03
aF0.040000000000000001
aI-599
aI1144
aI152
aF86.480000000000004
aF649.51999999999998
aF-9.1999999999999993
aa(lp74
g3
ag4
aI0
aF8.6190629005432129
aF0.42999999999999999
aF-1.05
aF0.040000000000000001
aI-1517
aI254
aI259
aF82.799999999999997
aF648.60000000000002
aF-5.5199999999999996
aa(lp75
g3
ag4
aI0
aF8.7199258804321289
aF0.44
aF-1.05
aF0.050000000000000003
aI-844
aI1135
aI541
aF86.480000000000004
aF643.08000000000004
aF4.5999999999999996
aa(lp76
g3
ag4
aI0
aF8.8250188827514648
aF0.42999999999999999
aF-1.05
aF0.050000000000000003
aI-534
aI-254
aI164
aF85.560000000000002
aF642.15999999999997
aF13.800000000000001
aa(lp77
g3
ag4
aI0
aF8.9350337982177734
aF0.45000000000000001
aF-1.05
aF0.040000000000000001
aI-536
aI-29
aI435
aF84.640000000000001
aF644
aF18.399999999999999
aa(lp78
g3
ag4
aI0
aF9.05735182762146
aF0.46999999999999997
aF-1.1000000000000001
aF0.050000000000000003
aI252
aI-1011
aI359
aF88.319999999999993
aF640.32000000000005
aF19.32
aa(lp79
g3
ag4
aI0
aF9.2191119194030762
aF0.46999999999999997
aF-1.1399999999999999
aF0.040000000000000001
aI1056
aI1167
aI-364
aF86.480000000000004
aF642.15999999999997
aF16.559999999999999
aa(lp80
g3
ag4
aI0
aF9.3191928863525391
aF0.46999999999999997
aF-1.1399999999999999
aF0.050000000000000003
aI1643
aI30
aI-347
aF85.560000000000002
aF643.08000000000004
aF9.1999999999999993
aa(lp81
g3
ag4
aI0
aF9.452279806137085
aF0.46000000000000002
aF-1.0900000000000001
aF0.070000000000000007
aI-135
aI-1833
aI-1103
aF80.040000000000006
aF646.75999999999999
aF-3.6800000000000002
aa(lp82
g3
ag4
aI0
aF9.5287389755249023
aF0.46000000000000002
aF-1.1100000000000001
aF0.070000000000000007
aI-1831
aI1330
aI874
aF74.519999999999996
aF649.51999999999998
aF0
aa(lp83
g3
ag4
aI0
aF9.6523668766021729
aF0.45000000000000001
aF-1.0900000000000001
aF0.029999999999999999
aI-3029
aI896
aI2807
aF88.319999999999993
aF646.75999999999999
aF18.399999999999999
aa(lp84
g3
ag4
aI0
aF9.7688009738922119
aF0.42999999999999999
aF-1.04
aF-0.02
aI-6045
aI4278
aI5086
aF116.84
aF627.44000000000005
aF60.719999999999999
aa(lp85
g3
ag4
aI0
aF9.923839807510376
aF0.35999999999999999
aF-0.78000000000000003
aF-0.029999999999999999
aI-5260
aI-1211
aI5506
aF163.75999999999999
aF592.48000000000002
aF106.72
aa(lp86
g3
ag4
aI0
aF10.029964923858643
aF0.33000000000000002
aF-0.71999999999999997
aF0.02
aI3574
aI-2029
aI-2821
aF180.31999999999999
aF586.96000000000004
aF102.12
aa(lp87
g3
ag4
aI0
aF10.14984393119812
aF0.34999999999999998
aF-0.76000000000000001
aF0
aI4219
aI1174
aI-5348
aF141.68000000000001
aF620.08000000000004
aF75.439999999999998
aa(lp88
g3
ag4
aI0
aF10.319196939468384
aF0.39000000000000001
aF-0.88
aF-0.01
aI2690
aI1841
aI-5391
aF114.08
aF631.12
aF59.799999999999997
aa(lp89
g3
ag4
aI0
aF10.420164823532104
aF0.46999999999999997
aF-0.97999999999999998
aF-0.02
aI529
aI3097
aI-2053
aF66.239999999999995
aF635.72000000000003
aF43.240000000000002
aa(lp90
g3
ag4
aI0
aF10.519482851028442
aF0.46999999999999997
aF-1
aF-0.050000000000000003
aI-356
aI-1080
aI-485
aF46
aF636.63999999999999
aF37.719999999999999
aa(lp91
g3
ag4
aI0
aF10.631260871887207
aF0.48999999999999999
aF-0.98999999999999999
aF-0.040000000000000001
aI289
aI996
aI301
aF42.32
aF637.55999999999995
aF40.479999999999997
aa(lp92
g3
ag4
aI0
aF10.800103902816772
aF0.51000000000000001
aF-1.03
aF-0
aI-272
aI439
aI760
aF42.32
aF637.55999999999995
aF40.479999999999997
aa(lp93
g3
ag4
aI0
aF10.920003890991211
aF0.5
aF-1.04
aF0
aI-845
aI-1679
aI776
aF50.600000000000001
aF636.63999999999999
aF45.079999999999998
aa(lp94
g3
ag4
aI0
aF11.020198822021484
aF0.46000000000000002
aF-1.02
aF-0
aI-835
aI403
aI1336
aF60.719999999999999
aF635.72000000000003
aF52.439999999999998
aa(lp95
g3
ag4
aI0
aF11.119808912277222
aF0.46000000000000002
aF-1.0700000000000001
aF0
aI-321
aI-1550
aI310
aF68.079999999999998
aF627.44000000000005
aF56.119999999999997
aa(lp96
g3
ag4
aI0
aF11.229988813400269
aF0.52000000000000002
aF-1.1699999999999999
aF0
aI1453
aI543
aI-909
aF70.840000000000003
aF629.27999999999997
aF54.280000000000001
aa(lp97
g3
ag4
aI0
aF11.373932838439941
aF0.53000000000000003
aF-1.1599999999999999
aF0.01
aI2211
aI1500
aI-922
aF55.200000000000003
aF632.03999999999996
aF41.399999999999999
aa(lp98
g3
ag4
aI0
aF11.520124912261963
aF0.51000000000000001
aF-1.1100000000000001
aF0.02
aI1417
aI-123
aI362
aF48.759999999999998
aF644.91999999999996
aF24.84
aa(lp99
g3
ag4
aI0
aF11.619235992431641
aF0.46999999999999997
aF-1.0700000000000001
aF0.02
aI-773
aI-867
aI1998
aF58.880000000000003
aF647.67999999999995
aF20.239999999999998
aa(lp100
g3
ag4
aI0
aF11.719679832458496
aF0.44
aF-1.01
aF-0.040000000000000001
aI-3542
aI194
aI2918
aF85.560000000000002
aF640.32000000000005
aF42.32
aa(lp101
g3
ag4
aI0
aF11.834928035736084
aF0.37
aF-0.98999999999999999
aF-0.050000000000000003
aI-4788
aI1175
aI3807
aF99.359999999999999
aF630.20000000000005
aF59.799999999999997
aa(lp102
g3
ag4
aI0
aF12.018935918807983
aF0.32000000000000001
aF-0.79000000000000004
aF-0.029999999999999999
aI-4151
aI-2911
aI5098
aF132.47999999999999
aF604.44000000000005
aF101.2
aa(lp103
g3
ag4
aI0
aF12.120427846908569
aF0.31
aF-0.71999999999999997
aF0.02
aI3908
aI-2479
aI-2735
aF172.03999999999999
aF590.63999999999999
aF110.40000000000001
aa(lp104
g3
ag4
aI0
aF12.219873905181885
aF0.32000000000000001
aF-0.80000000000000004
aF0.029999999999999999
aI4609
aI-1109
aI-4983
aF140.75999999999999
aF620.08000000000004
aF74.519999999999996
aa(lp105
g3
ag4
aI0
aF12.33235502243042
aF0.35999999999999999
aF-0.81999999999999995
aF0.02
aI2297
aI-389
aI-3672
aF103.95999999999999
aF638.48000000000002
aF42.32
aa(lp106
g3
ag4
aI0
aF12.444944858551025
aF0.39000000000000001
aF-0.92000000000000004
aF-0.02
aI40
aI570
aI-1211
aF72.680000000000007
aF641.24000000000001
aF29.440000000000001
aa(lp107
g3
ag4
aI0
aF12.567622900009155
aF0.44
aF-1.01
aF-0.029999999999999999
aI115
aI-160
aI564
aF69.920000000000002
aF643.08000000000004
aF25.760000000000002
aa(lp108
g3
ag4
aI0
aF12.71955394744873
aF0.41999999999999998
aF-1.03
aF-0.02
aI-447
aI-719
aI166
aF73.599999999999994
aF643.08000000000004
aF28.52
aa(lp109
g3
ag4
aI0
aF12.819604873657227
aF0.41999999999999998
aF-1.01
aF-0.040000000000000001
aI-899
aI299
aI242
aF71.760000000000005
aF642.15999999999997
aF30.359999999999999
aa(lp110
g3
ag4
aI0
aF12.919618844985962
aF0.42999999999999999
aF-1.01
aF-0.040000000000000001
aI-508
aI-1937
aI117
aF72.680000000000007
aF639.39999999999998
aF37.719999999999999
aa(lp111
g3
ag4
aI0
aF13.063704013824463
aF0.46000000000000002
aF-1.04
aF-0.040000000000000001
aI-827
aI-1419
aI834
aF84.640000000000001
aF632.96000000000004
aF40.479999999999997
aa(lp112
g3
ag4
aI0
aF13.22020697593689
aF0.46999999999999997
aF-1.0900000000000001
aF-0.02
aI-53
aI-1378
aI265
aF89.239999999999995
aF631.12
aF45.079999999999998
aa(lp113
g3
ag4
aI0
aF13.320084810256958
aF0.48999999999999999
aF-1.1399999999999999
aF-0.029999999999999999
aI1382
aI312
aI130
aF93.840000000000003
aF634.79999999999995
aF39.560000000000002
aa(lp114
g3
ag4
aI0
aF13.418911933898926
aF0.53000000000000003
aF-1.1899999999999999
aF-0.02
aI2399
aI2229
aI-834
aF89.239999999999995
aF638.48000000000002
aF24.84
aa(lp115
g3
ag4
aI0
aF13.520177841186523
aF0.51000000000000001
aF-1.1599999999999999
aF0
aI1973
aI76
aI197
aF83.719999999999999
aF646.75999999999999
aF7.3600000000000003
aa(lp116
g3
ag4
aI0
aF13.646023988723755
aF0.46999999999999997
aF-1.0800000000000001
aF-0
aI-255
aI1090
aI1353
aF86.480000000000004
aF648.60000000000002
aF2.7599999999999998
aa(lp117
g3
ag4
aI0
aF13.773752927780151
aF0.41999999999999998
aF-1.02
aF0.02
aI-2415
aI-147
aI3124
aF97.519999999999996
aF643.08000000000004
aF9.1999999999999993
aa(lp118
g3
ag4
aI0
aF13.927572965621948
aF0.37
aF-1.01
aF0.01
aI-4337
aI-1252
aI3897
aF130.63999999999999
aF634.79999999999995
aF35.880000000000003
aa(lp119
g3
ag4
aI0
aF14.019809007644653
aF0.31
aF-0.81999999999999995
aF-0.02
aI-6627
aI-2697
aI5657
aF179.40000000000001
aF609.03999999999996
aF79.120000000000005
aa(lp120
g3
ag4
aI0
aF14.12480902671814
aF0.29999999999999999
aF-0.70999999999999996
aF-0.02
aI1883
aI-2296
aI-1854
aF220.80000000000001
aF583.27999999999997
aF93.840000000000003
aa(lp121
g3
ag4
aI0
aF14.256345987319946
aF0.32000000000000001
aF-0.80000000000000004
aF-0.01
aI5197
aI273
aI-5562
aF189.52000000000001
aF609.03999999999996
aF63.479999999999997
aa(lp122
g3
ag4
aI0
aF14.420233011245728
aF0.33000000000000002
aF-0.89000000000000001
aF-0.01
aI2841
aI-487
aI-4609
aF144.44
aF632.03999999999996
aF30.359999999999999
aa(lp123
g3
ag4
aI0
aF14.519129991531372
aF0.37
aF-0.93000000000000005
aF-0.040000000000000001
aI1030
aI325
aI-3207
aF105.8
aF645.84000000000003
aF16.559999999999999
aa(lp124
g3
ag4
aI0
aF14.61953592300415
aF0.39000000000000001
aF-1.02
aF-0.029999999999999999
aI107
aI-401
aI-610
aF91.079999999999998
aF649.51999999999998
aF14.720000000000001
aa(lp125
g3
ag4
aI0
aF14.740157842636108
aF0.46000000000000002
aF-1.05
aF-0.050000000000000003
aI-985
aI-983
aI-634
aF86.480000000000004
aF649.51999999999998
aF12.880000000000001
aa(lp126
g3
ag4
aI0
aF14.856518030166626
aF0.46999999999999997
aF-1.04
aF-0.050000000000000003
aI-1256
aI397
aI-1157
aF79.120000000000005
aF641.24000000000001
aF22.079999999999998
aa(lp127
g3
ag4
aI0
aF15.02020788192749
aF0.5
aF-1.05
aF-0.070000000000000007
aI-1025
aI1102
aI197
aF69.920000000000002
aF637.55999999999995
aF34.960000000000001
aa(lp128
g3
ag4
aI0
aF15.119850873947144
aF0.48999999999999999
aF-1.01
aF-0.10000000000000001
aI-1020
aI-681
aI960
aF75.439999999999998
aF634.79999999999995
aF42.32
aa(lp129
g3
ag4
aI0
aF15.235038995742798
aF0.52000000000000002
aF-1.03
aF-0.12
aI-747
aI1508
aI1127
aF83.719999999999999
aF635.72000000000003
aF51.520000000000003
aa(lp130
g3
ag4
aI0
aF15.347656011581421
aF0.52000000000000002
aF-1.1200000000000001
aF-0.089999999999999997
aI490
aI-306
aI-339
aF85.560000000000002
aF633.88
aF52.439999999999998
aa(lp131
g3
ag4
aI0
aF15.459954977035522
aF0.52000000000000002
aF-1.1200000000000001
aF-0.089999999999999997
aI2052
aI1767
aI-628
aF80.040000000000006
aF634.79999999999995
aF47.840000000000003
aa(lp132
g3
ag4
aI0
aF15.619108915328979
aF0.52000000000000002
aF-1.0900000000000001
aF-0.070000000000000007
aI1603
aI-91
aI751
aF68.079999999999998
aF639.39999999999998
aF29.440000000000001
aa(lp133
g3
ag4
aI0
aF15.719643831253052
aF0.52000000000000002
aF-1.0900000000000001
aF-0.070000000000000007
aI418
aI453
aI2472
aF84.640000000000001
aF642.15999999999997
aF22.079999999999998
aa(lp134
g3
ag4
aI0
aF15.866405010223389
aF0.45000000000000001
aF-1.04
aF-0.080000000000000002
aI-2144
aI-1889
aI3723
aF106.72
aF644
aF23.920000000000002
aa(lp135
g3
ag4
aI0
aF16.019224882125854
aF0.34000000000000002
aF-0.94999999999999996
aF-0.089999999999999997
aI-5062
aI153
aI4709
aF147.19999999999999
aF627.44000000000005
aF47.840000000000003
aa(lp136
g3
ag4
aI0
aF16.119629859924316
aF0.31
aF-0.76000000000000001
aF-0.050000000000000003
aI-3620
aI1868
aI4613
aF188.59999999999999
aF596.15999999999997
aF88.319999999999993
aa(lp137
g3
ag4
aI0
aF16.21943998336792
aF0.28000000000000003
aF-0.75
aF-0.029999999999999999
aI2525
aI-3582
aI-2900
aF205.16
aF587.88
aF86.480000000000004
aa(lp138
g3
ag4
aI0
aF16.32017183303833
aF0.28000000000000003
aF-0.78000000000000003
aF-0.050000000000000003
aI2734
aI871
aI-4927
aF167.44
aF611.79999999999995
aF63.479999999999997
aa(lp139
g3
ag4
aI0
aF16.485100984573364
aF0.33000000000000002
aF-0.85999999999999999
aF-0.070000000000000007
aI811
aI458
aI-3561
aF146.28
aF625.60000000000002
aF53.359999999999999
aa(lp140
g3
ag4
aI0
aF16.620141983032227
aF0.35999999999999999
aF-0.94999999999999996
aF-0.11
aI36
aI136
aI-2028
aF114.08
aF635.72000000000003
aF50.600000000000001
aa(lp141
g3
ag4
aI0
aF16.719076871871948
aF0.39000000000000001
aF-0.97999999999999998
aF-0.12
aI291
aI20
aI-1145
aF95.680000000000007
aF635.72000000000003
aF46
aa(lp142
g3
ag4
aI0
aF16.820081949234009
aF0.38
aF-1
aF-0.10000000000000001
aI-583
aI1021
aI-728
aF83.719999999999999
aF629.27999999999997
aF45.079999999999998
aa(lp143
g3
ag4
aI0
aF16.919801950454712
aF0.42999999999999999
aF-1.01
aF-0.11
aI-1070
aI-266
aI-823
aF69.920000000000002
aF630.20000000000005
aF54.280000000000001
aa(lp144
g3
ag4
aI0
aF17.043587923049927
aF0.46999999999999997
aF-0.97999999999999998
aF-0.12
aI-1138
aI71
aI861
aF67.159999999999997
aF628.36000000000001
aF61.640000000000001
aa(lp145
g3
ag4
aI0
aF17.158674955368042
aF0.47999999999999998
aF-1.04
aF-0.12
aI-950
aI-315
aI290
aF76.359999999999999
aF626.51999999999998
aF69
aa(lp146
g3
ag4
aI0
aF17.319854974746704
aF0.52000000000000002
aF-1.0700000000000001
aF-0.13
aI232
aI-288
aI88
aF77.280000000000001
aF624.67999999999995
aF72.680000000000007
aa(lp147
g3
ag4
aI0
aF17.41891884803772
aF0.55000000000000004
aF-1.1100000000000001
aF-0.10000000000000001
aI1005
aI-628
aI69
aF78.200000000000003
aF624.67999999999995
aF68.079999999999998
aa(lp148
g3
ag4
aI0
aF17.519601821899414
aF0.54000000000000004
aF-1.1100000000000001
aF-0.11
aI1130
aI1194
aI311
aF77.280000000000001
aF623.75999999999999
aF61.640000000000001
aa(lp149
g3
ag4
aI0
aF17.631326913833618
aF0.48999999999999999
aF-1.0600000000000001
aF-0.089999999999999997
aI-42
aI-227
aI164
aF80.040000000000006
aF632.96000000000004
aF54.280000000000001
aa(lp150
g3
ag4
aI0
aF17.774857997894287
aF0.47999999999999998
aF-1.04
aF-0.12
aI-746
aI1948
aI1150
aF79.120000000000005
aF632.03999999999996
aF58.880000000000003
aa(lp151
g3
ag4
aI0
aF17.920117855072021
aF0.44
aF-1.02
aF-0.14000000000000001
aI-268
aI195
aI2555
aF94.760000000000005
aF631.12
aF61.640000000000001
aa(lp152
g3
ag4
aI0
aF18.019379854202271
aF0.40000000000000002
aF-1.01
aF-0.14999999999999999
aI-1375
aI-222
aI3367
aF108.56
aF624.67999999999995
aF66.239999999999995
aa(lp153
g3
ag4
aI0
aF18.136367797851562
aF0.37
aF-0.92000000000000004
aF-0.11
aI-3064
aI412
aI4993
aF138.91999999999999
aF609.96000000000004
aF80.959999999999994
aa(lp154
g3
ag4
aI0
aF18.251286029815674
aF0.31
aF-0.76000000000000001
aF-0.050000000000000003
aI-2445
aI-1789
aI4829
aF185.84
aF586.03999999999996
aF102.12
aa(lp155
g3
ag4
aI0
aF18.422485828399658
aF0.28000000000000003
aF-0.76000000000000001
aF-0.070000000000000007
aI2728
aI-1641
aI-3470
aF218.96000000000001
aF575.91999999999996
aF105.8
aa(lp156
g3
ag4
aI0
aF18.519953966140747
aF0.29999999999999999
aF-0.80000000000000004
aF-0.10000000000000001
aI3272
aI-123
aI-5334
aF182.16
aF603.51999999999998
aF83.719999999999999
aa(lp157
g3
ag4
aI0
aF18.62146782875061
aF0.32000000000000001
aF-0.88
aF-0.13
aI2120
aI-875
aI-3578
aF137.08000000000001
aF623.75999999999999
aF57.960000000000001
aa(lp158
g3
ag4
aI0
aF18.743607997894287
aF0.37
aF-0.98999999999999999
aF-0.13
aI1706
aI1618
aI-1665
aF110.40000000000001
aF632.03999999999996
aF42.32
aa(lp159
g3
ag4
aI0
aF18.866102933883667
aF0.40999999999999998
aF-1.05
aF-0.10000000000000001
aI1122
aI458
aI-992
aF93.840000000000003
aF638.48000000000002
aF35.880000000000003
aa(lp160
g3
ag4
aI0
aF19.020089864730835
aF0.44
aF-1.05
aF-0.080000000000000002
aI272
aI325
aI-906
aF80.959999999999994
aF644
aF27.600000000000001
aa(lp161
g3
ag4
aI0
aF19.1193528175354
aF0.46999999999999997
aF-1.05
aF-0.029999999999999999
aI-173
aI-1023
aI685
aF77.280000000000001
aF645.84000000000003
aF34.039999999999999
aa(lp162
g3
ag4
aI0
aF19.240185022354126
aF0.47999999999999998
aF-1.0700000000000001
aF-0.02
aI-1249
aI-452
aI1427
aF90.159999999999997
aF643.08000000000004
aF28.52
aa(lp163
g3
ag4
aI0
aF19.341599941253662
aF0.46999999999999997
aF-1.0900000000000001
aF-0.059999999999999998
aI-1284
aI-615
aI1014
aF101.2
aF631.12
aF39.560000000000002
aa(lp164
g3
ag4
aI0
aF19.465075969696045
aF0.46999999999999997
aF-1.1399999999999999
aF-0.059999999999999998
aI129
aI180
aI131
aF106.72
aF628.36000000000001
aF46.920000000000002
aa(lp165
g3
ag4
aI0
aF19.620045900344849
aF0.46999999999999997
aF-1.1399999999999999
aF-0.070000000000000007
aI1322
aI79
aI-675
aF103.95999999999999
aF632.03999999999996
aF42.32
aa(lp166
g3
ag4
aI0
aF19.720043897628784
aF0.46000000000000002
aF-1.1000000000000001
aF-0.070000000000000007
aI1468
aI381
aI-534
aF98.439999999999998
aF636.63999999999999
aF28.52
aa(lp167
g3
ag4
aI0
aF19.822552919387817
aF0.44
aF-1.0700000000000001
aF-0.059999999999999998
aI860
aI-705
aI298
aF96.599999999999994
aF643.08000000000004
aF19.32
aa(lp168
g3
ag4
aI0
aF19.946185827255249
aF0.44
aF-1.02
aF-0.059999999999999998
aI770
aI-1384
aI1238
aF105.8
aF642.15999999999997
aF16.559999999999999
aa(lp169
g3
ag4
aI0
aF20.075237035751343
aF0.40000000000000002
aF-1.0600000000000001
aF-0.029999999999999999
aI-1208
aI-1975
aI3146
aF115
aF640.32000000000005
aF11.039999999999999
aa(lp170
g3
ag4
aI0
aF20.219449996948242
aF0.37
aF-0.97999999999999998
aF-0.02
aI-3774
aI1072
aI6319
aF151.80000000000001
aF633.88
aF23.920000000000002
aa(lp171
g3
ag4
aI0
aF20.339975833892822
aF0.34999999999999998
aF-0.72999999999999998
aF0
aI-2738
aI-1202
aI4954
aF210.68000000000001
aF604.44000000000005
aF54.280000000000001
aa(lp172
g3
ag4
aI0
aF20.432406902313232
aF0.28000000000000003
aF-0.73999999999999999
aF0.02
aI2029
aI978
aI-4770
aF230
aF594.32000000000005
aF62.560000000000002
aa(lp173
g3
ag4
aI0
aF20.567592859268188
aF0.31
aF-0.77000000000000002
aF-0.040000000000000001
aI2668
aI-1398
aI-6249
aF174.80000000000001
aF620.08000000000004
aF43.240000000000002
aa(lp174
g3
ag4
aI0
aF20.71979284286499
aF0.34000000000000002
aF-0.83999999999999997
aF-0.070000000000000007
aI2160
aI-1972
aI-3600
aF125.12
aF638.48000000000002
aF18.399999999999999
aa(lp175
g3
ag4
aI0
aF20.819520950317383
aF0.44
aF-0.98999999999999999
aF-0.070000000000000007
aI717
aI2924
aI-340
aF104.88
aF645.84000000000003
aF3.6800000000000002
aa(lp176
g3
ag4
aI0
aF20.986351013183594
aF0.45000000000000001
aF-1.03
aF-0.080000000000000002
aI-1125
aI-249
aI664
aF106.72
aF645.84000000000003
aF6.4400000000000004
aa(lp177
g3
ag4
aI0
aF21.119069814682007
aF0.42999999999999999
aF-1.05
aF-0.080000000000000002
aI-1751
aI783
aI511
aF108.56
aF641.24000000000001
aF11.039999999999999
aa(lp178
g3
ag4
aI0
aF21.219610929489136
aF0.42999999999999999
aF-1.0600000000000001
aF-0.10000000000000001
aI-1457
aI163
aI183
aF108.56
aF631.12
aF28.52
aa(lp179
g3
ag4
aI0
aF21.319453001022339
aF0.45000000000000001
aF-1.1000000000000001
aF-0.089999999999999997
aI-241
aI246
aI-151
aF108.56
aF630.20000000000005
aF41.399999999999999
aa(lp180
g3
ag4
aI0
aF21.4200599193573
aF0.46000000000000002
aF-1.1399999999999999
aF-0.089999999999999997
aI1167
aI386
aI-595
aF103.95999999999999
aF632.03999999999996
aF41.399999999999999
aa(lp181
g3
ag4
aI0
aF21.53489089012146
aF0.46999999999999997
aF-1.1599999999999999
aF-0.080000000000000002
aI2198
aI488
aI-845
aF99.359999999999999
aF640.32000000000005
aF29.440000000000001
aa(lp182
g3
ag4
aI0
aF21.656343936920166
aF0.46000000000000002
aF-1.1100000000000001
aF-0.080000000000000002
aI2280
aI-434
aI-272
aF92.920000000000002
aF646.75999999999999
aF11.039999999999999
aa(lp183
g3
ag4
aI0
aF21.819988965988159
aF0.47999999999999998
aF-1.0700000000000001
aF-0.050000000000000003
aI1806
aI-847
aI851
aF92.920000000000002
aF647.67999999999995
aF-11.039999999999999
aa(lp184
g3
ag4
aI0
aF21.920024871826172
aF0.42999999999999999
aF-1.0800000000000001
aF-0.02
aI-361
aI-2914
aI1657
aF110.40000000000001
aF647.67999999999995
aF-12.880000000000001
aa(lp185
g3
ag4
aI0
aF22.04128885269165
aF0.40000000000000002
aF-1.02
aF-0.040000000000000001
aI-3321
aI2283
aI3880
aF120.52
aF644.91999999999996
aF-7.3600000000000003
aa(lp186
g3
ag4
aI0
aF22.151192903518677
aF0.38
aF-0.88
aF-0.059999999999999998
aI-3444
aI1508
aI7416
aF163.75999999999999
aF631.12
aF22.079999999999998
aa(lp187
g3
ag4
aI0
aF22.319976806640625
aF0.34999999999999998
aF-0.75
aF-0.050000000000000003
aI27
aI638
aI1319
aF225.40000000000001
aF603.51999999999998
aF44.159999999999997
aa(lp188
g3
ag4
aI0
aF22.419535875320435
aF0.34000000000000002
aF-0.71999999999999997
aF-0.040000000000000001
aI2832
aI316
aI-6211
aF214.36000000000001
aF608.12
aF34.039999999999999
aa(lp189
g3
ag4
aI0
aF22.520056009292603
aF0.32000000000000001
aF-0.81000000000000005
aF-0.040000000000000001
aI2951
aI-976
aI-6783
aF150.88
aF632.03999999999996
aF12.880000000000001
aa(lp190
g3
ag4
aI0
aF22.626466989517212
aF0.40999999999999998
aF-0.93999999999999995
aF-0.040000000000000001
aI742
aI1823
aI-2951
aF99.359999999999999
aF648.60000000000002
aF-2.7599999999999998
aa(lp191
g3
ag4
aI0
aF22.750027894973755
aF0.46999999999999997
aF-1
aF-0.050000000000000003
aI-111
aI937
aI115
aF84.640000000000001
aF648.60000000000002
aF-5.5199999999999996
aa(lp192
g3
ag4
aI0
aF22.893800973892212
aF0.44
aF-1.03
aF-0.050000000000000003
aI-634
aI-893
aI445
aF89.239999999999995
aF649.51999999999998
aF-1.8400000000000001
aa(lp193
g3
ag4
aI0
aF23.020009994506836
aF0.44
aF-1.04
aF-0.040000000000000001
aI-1227
aI842
aI457
aF86.480000000000004
aF645.84000000000003
aF0.92000000000000004
aa(lp194
g3
ag4
aI0
aF23.11894702911377
aF0.46999999999999997
aF-1.0600000000000001
aF-0.040000000000000001
aI-1265
aI-1333
aI116
aF93.840000000000003
aF644
aF13.800000000000001
aa(lp195
g3
ag4
aI0
aF23.231396913528442
aF0.5
aF-1.0700000000000001
aF-0.070000000000000007
aI-505
aI893
aI56
aF89.239999999999995
aF636.63999999999999
aF21.16
aa(lp196
g3
ag4
aI0
aF23.350036859512329
aF0.51000000000000001
aF-1.1000000000000001
aF-0.080000000000000002
aI238
aI-271
aI105
aF92
aF642.15999999999997
aF23.920000000000002
aa(lp197
g3
ag4
aI0
aF23.519523859024048
aF0.53000000000000003
aF-1.1699999999999999
aF-0.080000000000000002
aI947
aI928
aI112
aF89.239999999999995
aF643.08000000000004
aF15.640000000000001
aa(lp198
g3
ag4
aI0
aF23.619010925292969
aF0.51000000000000001
aF-1.1499999999999999
aF-0.059999999999999998
aI931
aI396
aI516
aF91.079999999999998
aF645.84000000000003
aF8.2799999999999994
aa(lp199
g3
ag4
aI0
aF23.719050884246826
aF0.46000000000000002
aF-1.1200000000000001
aF-0.059999999999999998
aI540
aI-1147
aI2700
aF97.519999999999996
aF644.91999999999996
aF2.7599999999999998
aa(lp200
g3
ag4
aI0
aF23.820014953613281
aF0.39000000000000001
aF-1.0600000000000001
aF-0.070000000000000007
aI-576
aI-2268
aI3748
aF125.12
aF643.08000000000004
aF0
aa(lp201
g3
ag4
aI0
aF23.951208829879761
aF0.29999999999999999
aF-0.96999999999999997
aF-0.059999999999999998
aI-3132
aI-187
aI5756
aF169.28
aF633.88
aF10.119999999999999
aa(lp202
g3
ag4
aI0
aF24.119650840759277
aF0.22
aF-0.75
aF0
aI-3341
aI297
aI7575
aF222.63999999999999
aF607.20000000000005
aF40.479999999999997
aa(lp203
g3
ag4
aI0
aF24.232661962509155
aF0.20999999999999999
aF-0.68999999999999995
aF0.02
aI2592
aI-1304
aI-6003
aF245.63999999999999
aF590.63999999999999
aF46.920000000000002
aa(lp204
g3
ag4
aI0
aF24.318825960159302
aF0.26000000000000001
aF-0.80000000000000004
aF0.01
aI2983
aI464
aI-8064
aF174.80000000000001
aF626.51999999999998
aF17.48
aa(lp205
g3
ag4
aI0
aF24.427698850631714
aF0.33000000000000002
aF-0.89000000000000001
aF0.01
aI1192
aI896
aI-4452
aF115.92
aF644.91999999999996
aF2.7599999999999998
aa(lp206
g3
ag4
aI0
aF24.548555850982666
aF0.40000000000000002
aF-0.93999999999999995
aF-0.01
aI-188
aI-621
aI-2571
aF98.439999999999998
aF649.51999999999998
aF-1.8400000000000001
aa(lp207
g3
ag4
aI0
aF24.673825979232788
aF0.47999999999999998
aF-0.97999999999999998
aF-0.050000000000000003
aI-636
aI1164
aI-1692
aF77.280000000000001
aF650.44000000000005
aF1.8400000000000001
aa(lp208
g3
ag4
aI0
aF24.81954288482666
aF0.5
aF-0.97999999999999998
aF-0.059999999999999998
aI-626
aI-683
aI-347
aF63.479999999999997
aF649.51999999999998
aF4.5999999999999996
aa(lp209
g3
ag4
aI0
aF24.919981002807617
aF0.52000000000000002
aF-1.02
aF-0.070000000000000007
aI-1092
aI-1934
aI289
aF64.400000000000006
aF646.75999999999999
aF9.1999999999999993
aa(lp210
g3
ag4
aI0
aF25.042464017868042
aF0.5
aF-1.03
aF-0.10000000000000001
aI-1822
aI-930
aI269
aF69.920000000000002
aF639.39999999999998
aF23
aa.