(lp1
(lp2
S'Morgan'
p3
aS'bicep curls'
p4
aI0
aF0.00019216537475585938
aF-0.10000000000000001
aF0.95999999999999996
aF-0.059999999999999998
aI-315
aI110
aI-2379
aF-154.56
aF-298.07999999999998
aF74.519999999999996
aa(lp5
g3
ag4
aI0
aF0.3450310230255127
aF-0.12
aF0.93999999999999995
aF-0.17000000000000001
aI-42
aI54
aI471
aF-92.920000000000002
aF-330.27999999999997
aF70.840000000000003
aa(lp6
g3
ag4
aI0
aF0.47007107734680176
aF-0.11
aF0.89000000000000001
aF-0.17999999999999999
aI-17
aI-1697
aI1978
aF-98.439999999999998
aF-322
aF69.920000000000002
aa(lp7
g3
ag4
aI0
aF0.62924909591674805
aF-0.10000000000000001
aF0.97999999999999998
aF-0.17999999999999999
aI-1065
aI-1544
aI2641
aF-114.08
aF-317.39999999999998
aF71.760000000000005
aa(lp8
g3
ag4
aI0
aF0.73264312744140625
aF-0.12
aF1.01
aF-0.14000000000000001
aI-263
aI-163
aI1256
aF-124.2
aF-320.16000000000003
aF68.079999999999998
aa(lp9
g3
ag4
aI0
aF0.85895609855651855
aF-0.13
aF1.01
aF-0.10000000000000001
aI-366
aI-185
aI-22
aF-131.56
aF-312.80000000000001
aF67.159999999999997
aa(lp10
g3
ag4
aI0
aF0.97258806228637695
aF-0.12
aF0.96999999999999997
aF-0.080000000000000002
aI-42
aI467
aI-941
aF-122.36
aF-315.56
aF66.239999999999995
aa(lp11
g3
ag4
aI0
aF1.1292080879211426
aF-0.12
aF0.96999999999999997
aF-0.070000000000000007
aI-492
aI864
aI68
aF-119.59999999999999
aF-317.39999999999998
aF64.400000000000006
aa(lp12
g3
ag4
aI0
aF1.2289800643920898
aF-0.10000000000000001
aF0.96999999999999997
aF-0.080000000000000002
aI-398
aI288
aI299
aF-123.28
aF-317.39999999999998
aF57.039999999999999
aa(lp13
g3
ag4
aI0
aF1.3488152027130127
aF-0.14999999999999999
aF0.97999999999999998
aF-0.11
aI214
aI-745
aI-1062
aF-123.28
aF-320.16000000000003
aF55.200000000000003
aa(lp14
g3
ag4
aI0
aF1.4700419902801514
aF-0.27000000000000002
aF0.98999999999999999
aF-0.13
aI1510
aI-3777
aI-6904
aF-101.2
aF-328.44
aF64.400000000000006
aa(lp15
g3
ag4
aI0
aF1.6292300224304199
aF-0.45000000000000001
aF1.04
aF-0.13
aI2381
aI-6984
aI-16511
aF-5.5199999999999996
aF-346.83999999999997
aF89.239999999999995
aa(lp16
g3
ag4
aI0
aF1.7313811779022217
aF-0.66000000000000003
aF0.93999999999999995
aF-0.059999999999999998
aI251
aI-9493
aI-27629
aF198.72
aF-325.68000000000001
aF96.599999999999994
aa(lp17
g3
ag4
aI0
aF1.8575291633605957
aF-0.78000000000000003
aF0.60999999999999999
aF0.02
aI-4197
aI-7410
aI-31832
aF446.19999999999999
aF-161
aF41.399999999999999
aa(lp18
g3
ag4
aI0
aF1.9750831127166748
aF-0.68000000000000005
aF0.23999999999999999
aF0.10000000000000001
aI-9023
aI-2701
aI-25866
aF549.24000000000001
aF119.59999999999999
aF-38.640000000000001
aa(lp19
g3
ag4
aI0
aF2.1294450759887695
aF-0.40999999999999998
aF-0.20999999999999999
aF0.059999999999999998
aI-4319
aI-6589
aI-8813
aF521.63999999999999
aF314.63999999999999
aF-69
aa(lp20
g3
ag4
aI0
aF2.2293531894683838
aF-0.35999999999999999
aF-0.46000000000000002
aF0.11
aI4439
aI5987
aI14545
aF523.48000000000002
aF297.16000000000003
aF-83.719999999999999
aa(lp21
g3
ag4
aI0
aF2.3339769840240479
aF-0.55000000000000004
aF-0.37
aF0.13
aI3420
aI6663
aI23078
aF547.39999999999998
aF102.12
aF-26.68
aa(lp22
g3
ag4
aI0
aF2.4587960243225098
aF-0.70999999999999996
aF-0.11
aF0.12
aI2507
aI6245
aI22518
aF473.80000000000001
aF-114.08
aF39.560000000000002
aa(lp23
g3
ag4
aI0
aF2.5803451538085938
aF-0.78000000000000003
aF0.23000000000000001
aF0.01
aI1646
aI7406
aI21864
aF330.27999999999997
aF-264.95999999999998
aF82.799999999999997
aa(lp24
g3
ag4
aI0
aF2.7292640209197998
aF-0.76000000000000001
aF0.57999999999999996
aF-0.040000000000000001
aI121
aI3014
aI18728
aF242.88
aF-310.95999999999998
aF92.920000000000002
aa(lp25
g3
ag4
aI0
aF2.8489770889282227
aF-0.65000000000000002
aF0.78000000000000003
aF-0.080000000000000002
aI-416
aI2474
aI14579
aF74.519999999999996
aF-345.92000000000002
aF101.2
aa(lp26
g3
ag4
aI0
aF2.9700651168823242
aF-0.5
aF0.89000000000000001
aF-0.11
aI-351
aI2666
aI8445
aF-51.520000000000003
aF-333.04000000000002
aF96.599999999999994
aa(lp27
g3
ag4
aI0
aF3.129249095916748
aF-0.34000000000000002
aF0.93000000000000005
aF-0.12
aI24
aI-1461
aI3199
aF-115
aF-312.80000000000001
aF92
aa(lp28
g3
ag4
aI0
aF3.2291741371154785
aF-0.26000000000000001
aF0.93999999999999995
aF-0.12
aI73
aI-245
aI-350
aF-128.80000000000001
aF-310.04000000000002
aF96.599999999999994
aa(lp29
g3
ag4
aI0
aF3.3312690258026123
aF-0.20000000000000001
aF0.94999999999999996
aF-0.13
aI452
aI-617
aI-1380
aF-119.59999999999999
aF-307.27999999999997
aF102.12
aa(lp30
g3
ag4
aI0
aF3.4525611400604248
aF-0.25
aF0.98999999999999999
aF-0.14000000000000001
aI563
aI-3820
aI-5643
aF-92.920000000000002
aF-315.56
aF107.64
aa(lp31
g3
ag4
aI0
aF3.5750741958618164
aF-0.44
aF1.04
aF-0.14000000000000001
aI790
aI-6992
aI-17665
aF11.960000000000001
aF-333.95999999999998
aF119.59999999999999
aa(lp32
g3
ag4
aI0
aF3.7293610572814941
aF-0.77000000000000002
aF1.05
aF-0.050000000000000003
aI-2336
aI-10595
aI-31318
aF247.47999999999999
aF-299
aF104.88
aa(lp33
g3
ag4
aI0
aF3.8288841247558594
aF-0.80000000000000004
aF0.65000000000000002
aF0.040000000000000001
aI-8097
aI-2895
aI-32736
aF492.19999999999999
aF-74.519999999999996
aF37.719999999999999
aa(lp34
g3
ag4
aI0
aF3.9451630115509033
aF-0.55000000000000004
aF0.20999999999999999
aF0.10000000000000001
aI-7533
aI-8796
aI-26344
aF536.36000000000001
aF213.44
aF-15.640000000000001
aa(lp35
g3
ag4
aI0
aF4.0939199924468994
aF-0.31
aF-0.23999999999999999
aF-0.070000000000000007
aI-1342
aI-2184
aI1024
aF510.60000000000002
aF333.04000000000002
aF-67.159999999999997
aa(lp36
g3
ag4
aI0
aF4.2293760776519775
aF-0.45000000000000001
aF-0.29999999999999999
aF0.14999999999999999
aI5848
aI6756
aI25305
aF544.63999999999999
aF164.68000000000001
aF-24.84
aa(lp37
g3
ag4
aI0
aF4.3292841911315918
aF-0.79000000000000004
aF-0.12
aF0.12
aI4868
aI3666
aI23659
aF531.75999999999999
aF35.880000000000003
aF2.7599999999999998
aa(lp38
g3
ag4
aI0
aF4.4626121520996094
aF-0.90000000000000002
aF0.19
aF0.040000000000000001
aI2646
aI3181
aI20086
aF437
aF-164.68000000000001
aF57.039999999999999
aa(lp39
g3
ag4
aI0
aF4.5715441703796387
aF-0.84999999999999998
aF0.40999999999999998
aF0.029999999999999999
aI1254
aI6382
aI17758
aF294.39999999999998
aF-282.44
aF95.680000000000007
aa(lp40
g3
ag4
aI0
aF4.7288219928741455
aF-0.77000000000000002
aF0.63
aF-0.040000000000000001
aI272
aI2065
aI14186
aF143.52000000000001
aF-332.12
aF115
aa(lp41
g3
ag4
aI0
aF4.8293170928955078
aF-0.56999999999999995
aF0.79000000000000004
aF-0.089999999999999997
aI622
aI842
aI11912
aF19.32
aF-336.72000000000003
aF115.92
aa(lp42
g3
ag4
aI0
aF4.9440610408782959
aF-0.40999999999999998
aF0.91000000000000003
aF-0.12
aI303
aI2215
aI9736
aF-80.959999999999994
aF-313.72000000000003
aF120.52
aa(lp43
g3
ag4
aI0
aF5.0602450370788574
aF-0.39000000000000001
aF0.94999999999999996
aF-0.14000000000000001
aI-25
aI-1629
aI2282
aF-138.91999999999999
aF-290.72000000000003
aF118.68000000000001
aa(lp44
g3
ag4
aI0
aF5.2126719951629639
aF-0.40000000000000002
aF0.98999999999999999
aF-0.14999999999999999
aI-208
aI-3452
aI-11199
aF-93.840000000000003
aF-309.12
aF127.88
aa(lp45
g3
ag4
aI0
aF5.3390560150146484
aF-0.5
aF1.02
aF-0.12
aI-677
aI-7568
aI-19581
aF62.560000000000002
aF-332.12
aF127.88
aa(lp46
g3
ag4
aI0
aF5.4550859928131104
aF-0.69999999999999996
aF0.90000000000000002
aF-0.040000000000000001
aI-2484
aI-7328
aI-24608
aF285.19999999999999
aF-280.60000000000002
aF98.439999999999998
aa(lp47
g3
ag4
aI0
aF5.5801410675048828
aF-0.89000000000000001
aF0.67000000000000004
aF0.13
aI-8065
aI-11558
aI-28593
aF475.63999999999999
aF-115.92
aF16.559999999999999
aa(lp48
g3
ag4
aI0
aF5.7294330596923828
aF-0.72999999999999998
aF0.20999999999999999
aF0.16
aI-14145
aI-5696
aI-27372
aF552
aF162.84
aF-80.959999999999994
aa(lp49
g3
ag4
aI0
aF5.829395055770874
aF-0.40000000000000002
aF-0.17999999999999999
aF0.040000000000000001
aI-5787
aI-5753
aI-7421
aF0.92000000000000004
aF8.2799999999999994
aF15722.799999999999
aa(lp50
g3
ag4
aI0
aF5.965177059173584
aF-0.31
aF-0.38
aF0.040000000000000001
aI7685
aI7377
aI18451
aF517.03999999999996
aF314.63999999999999
aF-108.56
aa(lp51
g3
ag4
aI0
aF6.1293950080871582
aF-0.60999999999999999
aF-0.22
aF0.22
aI7524
aI6058
aI26252
aF549.24000000000001
aF108.56
aF-56.119999999999997
aa(lp52
g3
ag4
aI0
aF6.2292661666870117
aF-0.89000000000000001
aF0.059999999999999998
aF0.25
aI4429
aI3594
aI20061
aF476.56
aF-123.28
aF10.119999999999999
aa(lp53
g3
ag4
aI0
aF6.3293449878692627
aF-0.92000000000000004
aF0.28999999999999998
aF0.17000000000000001
aI2084
aI3801
aI15542
aF355.12
aF-256.68000000000001
aF56.119999999999997
aa(lp54
g3
ag4
aI0
aF6.4539341926574707
aF-0.79000000000000004
aF0.54000000000000004
aF0.080000000000000002
aI903
aI5677
aI14255
aF222.63999999999999
aF-322
aF86.480000000000004
aa(lp55
g3
ag4
aI0
aF6.5815191268920898
aF-0.68000000000000005
aF0.70999999999999996
aF-0.01
aI1074
aI3705
aI11625
aF97.519999999999996
aF-345
aF101.2
aa(lp56
g3
ag4
aI0
aF6.7291791439056396
aF-0.53000000000000003
aF0.81000000000000005
aF-0.070000000000000007
aI660
aI2384
aI9461
aF-8.2799999999999994
aF-339.48000000000002
aF108.56
aa(lp57
g3
ag4
aI0
aF6.8293020725250244
aF-0.40000000000000002
aF0.90000000000000002
aF-0.10000000000000001
aI403
aI1280
aI6231
aF-86.480000000000004
aF-318.31999999999999
aF109.48
aa(lp58
g3
ag4
aI0
aF6.9352400302886963
aF-0.33000000000000002
aF0.92000000000000004
aF-0.11
aI15
aI66
aI1447
aF-115.92
aF-305.44
aF114.08
aa(lp59
g3
ag4
aI0
aF7.0514659881591797
aF-0.35999999999999999
aF0.95999999999999996
aF-0.13
aI56
aI-3180
aI-5898
aF-112.23999999999999
aF-303.60000000000002
aF109.48
aa(lp60
g3
ag4
aI0
aF7.1914939880371094
aF-0.5
aF0.98999999999999999
aF-0.12
aI-467
aI-7911
aI-18379
aF-28.52
aF-327.51999999999998
aF119.59999999999999
aa(lp61
g3
ag4
aI0
aF7.3327200412750244
aF-0.65000000000000002
aF0.89000000000000001
aF-0.050000000000000003
aI-2004
aI-8338
aI-24444
aF168.36000000000001
aF-326.60000000000002
aF112.23999999999999
aa(lp62
g3
ag4
aI0
aF7.4466071128845215
aF-0.87
aF0.62
aF0.16
aI-7045
aI-15180
aI-28381
aF398.36000000000001
aF-215.28
aF48.759999999999998
aa(lp63
g3
ag4
aI0
aF7.5650351047515869
aF-0.80000000000000004
aF0.27000000000000002
aF0.25
aI-13396
aI-6649
aI-24795
aF537.27999999999997
aF22.079999999999998
aF-74.519999999999996
aa(lp64
g3
ag4
aI0
aF7.7294490337371826
aF-0.48999999999999999
aF-0.14000000000000001
aF0.16
aI-9393
aI-4196
aI-15944
aF529.91999999999996
aF273.24000000000001
aF-136.16
aa(lp65
g3
ag4
aI0
aF7.8293612003326416
aF-0.32000000000000001
aF-0.44
aF0.19
aI2843
aI1681
aI5585
aF489.44
aF379.95999999999998
aF-151.80000000000001
aa(lp66
g3
ag4
aI0
aF7.9666011333465576
aF-0.41999999999999998
aF-0.47999999999999998
aF0.25
aI6427
aI2825
aI15963
aF524.39999999999998
aF287.95999999999998
aF-141.68000000000001
aa(lp67
g3
ag4
aI0
aF8.128446102142334
aF-0.59999999999999998
aF-0.39000000000000001
aF0.35999999999999999
aI8086
aI11093
aI19914
aF549.24000000000001
aF107.64
aF-111.31999999999999
aa(lp68
g3
ag4
aI0
aF8.2282559871673584
aF-0.81000000000000005
aF-0.070000000000000007
aF0.34000000000000002
aI4745
aI8689
aI24181
aF487.60000000000002
aF-107.64
aF-12.880000000000001
aa(lp69
g3
ag4
aI0
aF8.3293361663818359
aF-0.83999999999999997
aF0.34000000000000002
aF0.22
aI774
aI7099
aI22820
aF322
aF-277.83999999999997
aF68.079999999999998
aa(lp70
g3
ag4
aI0
aF8.4512770175933838
aF-0.76000000000000001
aF0.64000000000000001
aF0.059999999999999998
aI816
aI2570
aI16933
aF137.08000000000001
aF-341.31999999999999
aF91.079999999999998
aa(lp71
g3
ag4
aI0
aF8.5714809894561768
aF-0.60999999999999999
aF0.81999999999999995
aF-0
aI865
aI-1422
aI12956
aF6.4400000000000004
aF-345
aF103.04000000000001
aa(lp72
g3
ag4
aI0
aF8.728938102722168
aF-0.56000000000000005
aF0.92000000000000004
aF-0.01
aI-48
aI-4011
aI5282
aF-64.400000000000006
aF-322.92000000000002
aF113.16
aa(lp73
g3
ag4
aI0
aF8.8293981552124023
aF-0.59999999999999998
aF1
aF-0.01
aI-1982
aI-6879
aI-11161
aF-3.6800000000000002
aF-334.88
aF112.23999999999999
aa(lp74
g3
ag4
aI0
aF8.9516379833221436
aF-0.76000000000000001
aF1.03
aF0.11
aI-5932
aI-11366
aI-25269
aF90.159999999999997
aF-346.83999999999997
aF98.439999999999998
aa(lp75
g3
ag4
aI0
aF9.0653290748596191
aF-0.81000000000000005
aF0.83999999999999997
aF0.25
aI-12591
aI-9305
aI-29746
aF338.56
aF-277.83999999999997
aF21.16
aa(lp76
g3
ag4
aI0
aF9.2293801307678223
aF-0.73999999999999999
aF0.45000000000000001
aF0.39000000000000001
aI-13589
aI-6795
aI-25940
aF516.12
aF-55.200000000000003
aF-104.88
aa(lp77
g3
ag4
aI0
aF9.3303070068359375
aF-0.55000000000000004
aF0.02
aF0.34000000000000002
aI-12449
aI-2197
aI-18636
aF539.12
aF218.96000000000001
aF-167.44
aa(lp78
g3
ag4
aI0
aF9.4527339935302734
aF-0.28000000000000003
aF-0.35999999999999999
aF0.14000000000000001
aI-636
aI-790
aI-3333
aF483.92000000000002
aF393.75999999999999
aF-158.24000000000001
aa(lp79
g3
ag4
aI0
aF9.5827560424804688
aF-0.25
aF-0.44
aF0.14999999999999999
aI12271
aI3210
aI16795
aF488.51999999999998
aF381.80000000000001
aF-171.12
aa(lp80
g3
ag4
aI0
aF9.72884202003479
aF-0.56999999999999995
aF-0.28000000000000003
aF0.38
aI17177
aI2501
aI23486
aF539.12
aF163.75999999999999
aF-173.88
aa(lp81
g3
ag4
aI0
aF9.8467512130737305
aF-0.58999999999999997
aF0.11
aF0.39000000000000001
aI15309
aI2563
aI22922
aF495.88
aF-98.439999999999998
aF-116.84
aa(lp82
g3
ag4
aI0
aF9.962874174118042
aF-0.76000000000000001
aF0.48999999999999999
aF0.5
aI15457
aI2809
aI19094
aF366.16000000000003
aF-264.95999999999998
aF-23
aa(lp83
g3
ag4
aI0
aF10.129233121871948
aF-0.70999999999999996
aF0.70999999999999996
aF0.47999999999999998
aI10913
aI-876
aI13850
aF222.63999999999999
aF-322.92000000000002
aF82.799999999999997
aa(lp84
g3
ag4
aI0
aF10.229245185852051
aF-0.68000000000000005
aF0.81999999999999995
aF0.41999999999999998
aI-65
aI-5855
aI-611
aF161.91999999999999
aF-322
aF121.44
aa(lp85
g3
ag4
aI0
aF10.328097105026245
aF-0.71999999999999997
aF0.89000000000000001
aF0.53000000000000003
aI-12231
aI-12845
aI-16920
aF263.12
aF-314.63999999999999
aF54.280000000000001
aa(lp86
g3
ag4
aI0
aF10.489036083221436
aF-0.73999999999999999
aF0.83999999999999997
aF0.64000000000000001
aI-19802
aI-2438
aI-21275
aF432.39999999999998
aF-201.47999999999999
aF-102.12
aa(lp87
g3
ag4
aI0
aF10.629408121109009
aF-0.66000000000000003
aF0.52000000000000002
aF0.68000000000000005
aI-21844
aI-3828
aI-18240
aF517.03999999999996
aF29.440000000000001
aF-219.88
aa(lp88
g3
ag4
aI0
aF10.729479074478149
aF-0.51000000000000001
aF0.11
aF0.56000000000000005
aI-18116
aI-5682
aI-11713
aF505.07999999999998
aF251.16
aF-250.24000000000001
aa(lp89
g3
ag4
aI0
aF10.840370178222656
aF-0.34000000000000002
aF-0.23999999999999999
aF0.37
aI-3989
aI2271
aI-3867
aF471.95999999999998
aF369.83999999999997
aF-230.91999999999999
aa(lp90
g3
ag4
aI0
aF10.959139108657837
aF-0.26000000000000001
aF-0.40999999999999998
aF0.27000000000000002
aI11835
aI3981
aI10952
aF497.72000000000003
aF311.88
aF-223.56
aa(lp91
g3
ag4
aI0
aF11.099188089370728
aF-0.39000000000000001
aF-0.25
aF0.42999999999999999
aI17791
aI2777
aI19432
aF538.20000000000005
aF103.95999999999999
aF-200.56
aa(lp92
g3
ag4
aI0
aF11.237977027893066
aF-0.60999999999999999
aF0.080000000000000002
aF0.56000000000000005
aI15214
aI3818
aI17810
aF494.95999999999998
aF-106.72
aF-113.16
aa(lp93
g3
ag4
aI0
aF11.36037015914917
aF-0.71999999999999997
aF0.33000000000000002
aF0.64000000000000001
aI12390
aI3974
aI15624
aF402.95999999999998
aF461.83999999999997
aF-28.52
aa(lp94
g3
ag4
aI0
aF11.484315156936646
aF-0.67000000000000004
aF0.58999999999999997
aF0.54000000000000004
aI8360
aI5704
aI11685
aF344.07999999999998
aF-274.16000000000003
aF11.039999999999999
aa(lp95
g3
ag4
aI0
aF11.629227161407471
aF-0.67000000000000004
aF0.72999999999999998
aF0.48999999999999999
aI3054
aI-2339
aI4007
aF248.40000000000001
aF-303.60000000000002
aF80.040000000000006
aa(lp96
g3
ag4
aI0
aF11.729271173477173
aF-0.68000000000000005
aF0.81999999999999995
aF0.54000000000000004
aI-7970
aI-5423
aI-11532
aF266.80000000000001
aF-303.60000000000002
aF69
aa(lp97
g3
ag4
aI0
aF11.850515127182007
aF-0.76000000000000001
aF0.76000000000000001
aF0.62
aI-16429
aI-5513
aI-17968
aF389.16000000000003
aF-248.40000000000001
aF-40.479999999999997
aa(lp98
g3
ag4
aI0
aF11.979351997375488
aF-0.75
aF0.56999999999999995
aF0.70999999999999996
aI-20143
aI-3414
aI-17959
aF494.95999999999998
aF-80.040000000000006
aF-165.59999999999999
aa(lp99
g3
ag4
aI0
aF12.129188060760498
aF-0.58999999999999997
aF0.20999999999999999
aF0.67000000000000004
aI-17505
aI-3355
aI-13718
aF528.08000000000004
aF137.08000000000001
aF-218.03999999999999
aa(lp100
g3
ag4
aI0
aF12.242954015731812
aF-0.48999999999999999
aF-0.17999999999999999
aF0.53000000000000003
aI-9211
aI-875
aI-6595
aF503.24000000000001
aF299.92000000000002
aF-221.72
aa(lp101
g3
ag4
aI0
aF12.364104032516479
aF-0.33000000000000002
aF-0.46999999999999997
aF0.38
aI1867
aI3623
aI2315
aF494.04000000000002
aF354.19999999999999
aF-202.40000000000001
aa(lp102
g3
ag4
aI0
aF12.529298067092896
aF-0.41999999999999998
aF-0.46000000000000002
aF0.45000000000000001
aI11579
aI5699
aI12806
aF523.48000000000002
aF272.31999999999999
aF-190.44
aa(lp103
g3
ag4
aI0
aF12.629341125488281
aF-0.59999999999999998
aF-0.29999999999999999
aF0.52000000000000002
aI13622
aI2325
aI15610
aF540.03999999999996
aF97.519999999999996
aF-159.16
aa(lp104
g3
ag4
aI0
aF12.729304075241089
aF-0.70999999999999996
aF0.02
aF0.56999999999999995
aI13906
aI2549
aI16687
aF504.16000000000003
aF-80.040000000000006
aF-98.439999999999998
aa(lp105
g3
ag4
aI0
aF12.864131212234497
aF-0.70999999999999996
aF0.34000000000000002
aF0.58999999999999997
aI9699
aI3216
aI14544
aF421.36000000000001
aF-209.75999999999999
aF-18.399999999999999
aa(lp106
g3
ag4
aI0
aF13.029404163360596
aF-0.64000000000000001
aF0.57999999999999996
aF0.46999999999999997
aI8162
aI4203
aI12111
aF322
aF-281.51999999999998
aF50.600000000000001
aa(lp107
g3
ag4
aI0
aF13.129329204559326
aF-0.75
aF0.70999999999999996
aF0.45000000000000001
aI1967
aI-1210
aI2893
aF260.36000000000001
aF-304.51999999999998
aF87.400000000000006
aa(lp108
g3
ag4
aI0
aF13.229198217391968
aF-0.82999999999999996
aF0.72999999999999998
aF0.5
aI-7296
aI-4419
aI-11651
aF277.83999999999997
aF-299
aF76.359999999999999
aa(lp109
g3
ag4
aI0
aF13.365101099014282
aF-0.85999999999999999
aF0.69999999999999996
aF0.60999999999999999
aI-14785
aI-5218
aI-20266
aF386.39999999999998
aF-241.03999999999999
aF-3.6800000000000002
aa(lp110
g3
ag4
aI0
aF13.528105020523071
aF-0.81000000000000005
aF0.47999999999999998
aF0.64000000000000001
aI-18436
aI-2521
aI-21361
aF506.92000000000002
aF-73.599999999999994
aF-115
aa(lp111
g3
ag4
aI0
aF13.627746105194092
aF-0.62
aF0.13
aF0.54000000000000004
aI-18178
aI-2765
aI-17931
aF541.88
aF169.28
aF-180.31999999999999
aa(lp112
g3
ag4
aI0
aF13.744001150131226
aF-0.38
aF-0.23999999999999999
aF0.35999999999999999
aI-11032
aI-3105
aI-9975
aF494.95999999999998
aF370.75999999999999
aF-170.19999999999999
aa(lp113
g3
ag4
aI0
aF13.866420030593872
aF-0.23999999999999999
aF-0.52000000000000002
aF0.20000000000000001
aI3543
aI1410
aI4380
aF452.63999999999999
aF442.51999999999998
aF-159.16
aa(lp114
g3
ag4
aI0
aF14.027955055236816
aF-0.33000000000000002
aF-0.58999999999999997
aF0.34000000000000002
aI10691
aI4133
aI14819
aF494.04000000000002
aF366.16000000000003
aF-165.59999999999999
aa(lp115
g3
ag4
aI0
aF14.140097141265869
aF-0.53000000000000003
aF-0.44
aF0.46000000000000002
aI9668
aI5607
aI16705
aF543.72000000000003
aF193.19999999999999
aF-149.96000000000001
aa(lp116
g3
ag4
aI0
aF14.231426000595093
aF-0.68999999999999995
aF-0.26000000000000001
aF0.46999999999999997
aI8337
aI5296
aI14391
aF538.20000000000005
aF23.920000000000002
aF-107.64
aa(lp117
g3
ag4
aI0
aF14.385020017623901
aF-0.73999999999999999
aF0.02
aF0.52000000000000002
aI7823
aI-535
aI13301
aF490.36000000000001
aF-109.48
aF-52.439999999999998
aa(lp118
g3
ag4
aI0
aF14.528207063674927
aF-0.79000000000000004
aF0.23999999999999999
aF0.44
aI7904
aI1748
aI11710
aF425.95999999999998
aF-202.40000000000001
aF-9.1999999999999993
aa(lp119
g3
ag4
aI0
aF14.628507137298584
aF-0.79000000000000004
aF0.51000000000000001
aF0.40000000000000002
aI6345
aI1090
aI10176
aF341.31999999999999
aF-260.36000000000001
aF49.68
aa(lp120
g3
ag4
aI0
aF14.731465101242065
aF-0.84999999999999998
aF0.62
aF0.42999999999999999
aI-120
aI672
aI142
aF292.56
aF-285.19999999999999
aF82.799999999999997
aa(lp121
g3
ag4
aI0
aF14.853865146636963
aF-0.96999999999999997
aF0.65000000000000002
aF0.46000000000000002
aI-7833
aI-4773
aI-13202
aF366.16000000000003
aF-253.91999999999999
aF37.719999999999999
aa(lp122
g3
ag4
aI0
aF14.97526216506958
aF-0.93000000000000005
aF0.56999999999999995
aF0.52000000000000002
aI-14058
aI-5498
aI-20856
aF421.36000000000001
aF-207.91999999999999
aF-6.4400000000000004
aa(lp123
g3
ag4
aI0
aF15.128829002380371
aF-0.84999999999999998
aF0.28000000000000003
aF0.52000000000000002
aI-14960
aI-4272
aI-19854
aF521.63999999999999
aF-32.200000000000003
aF-104.88
aa(lp124
g3
ag4
aI0
aF15.246387004852295
aF-0.66000000000000003
aF-0.050000000000000003
aF0.47999999999999998
aI-14144
aI-5734
aI-16165
aF542.79999999999995
aF183.08000000000001
aF-157.31999999999999
aa(lp125
g3
ag4
aI0
aF15.370069026947021
aF-0.40999999999999998
aF-0.35999999999999999
aF0.32000000000000001
aI-5702
aI-3751
aI-6112
aF502.31999999999999
aF352.36000000000001
aF-167.44
aa(lp126
g3
ag4
aI0
aF15.529015064239502
aF-0.31
aF-0.59999999999999998
aF0.28000000000000003
aI7665
aI5182
aI8493
aF480.24000000000001
aF391
aF-172.96000000000001
aa(lp127
g3
ag4
aI0
aF15.629142999649048
aF-0.54000000000000004
aF-0.55000000000000004
aF0.45000000000000001
aI10473
aI4720
aI15782
aF526.24000000000001
aF273.24000000000001
aF-154.56
aa(lp128
g3
ag4
aI0
aF15.756357192993164
aF-0.73999999999999999
aF-0.31
aF0.46999999999999997
aI10159
aI1958
aI16387
aF547.39999999999998
aF92
aF-109.48
aa(lp129
g3
ag4
aI0
aF15.872537136077881
aF-0.77000000000000002
aF-0.029999999999999999
aF0.46000000000000002
aI9184
aI3917
aI15829
aF510.60000000000002
aF-67.159999999999997
aF-57.960000000000001
aa(lp130
g3
ag4
aI0
aF16.028741121292114
aF-0.81000000000000005
aF0.26000000000000001
aF0.39000000000000001
aI8470
aI2699
aI13983
aF431.48000000000002
aF-186.75999999999999
aF16.559999999999999
aa(lp131
g3
ag4
aI0
aF16.129028081893921
aF-0.82999999999999996
aF0.45000000000000001
aF0.34000000000000002
aI6273
aI4846
aI11597
aF340.39999999999998
aF-254.84
aF74.519999999999996
aa(lp132
g3
ag4
aI0
aF16.251177072525024
aF-0.88
aF0.60999999999999999
aF0.32000000000000001
aI2023
aI468
aI4775
aF253
aF-287.04000000000002
aF121.44
aa(lp133
g3
ag4
aI0
aF16.368927001953125
aF-0.97999999999999998
aF0.68000000000000005
aF0.31
aI-4486
aI-2745
aI-11248
aF279.68000000000001
aF-276.92000000000002
aF108.56
aa(lp134
g3
ag4
aI0
aF16.528604984283447
aF-1.01
aF0.67000000000000004
aF0.34999999999999998
aI-10798
aI-6505
aI-23208
aF423.19999999999999
aF-190.44
aF31.280000000000001
aa(lp135
g3
ag4
aI0
aF16.628898143768311
aF-0.87
aF0.40000000000000002
aF0.39000000000000001
aI-13043
aI-4865
aI-23985
aF537.27999999999997
aF16.559999999999999
aF-59.799999999999997
aa(lp136
g3
ag4
aI0
aF16.740190982818604
aF-0.69999999999999996
aF0.050000000000000003
aF0.35999999999999999
aI-13353
aI-4683
aI-18478
aF542.79999999999995
aF239.19999999999999
aF-115
aa(lp137
g3
ag4
aI0
aF16.890063047409058
aF-0.44
aF-0.34000000000000002
aF0.23000000000000001
aI-7382
aI-5002
aI-9239
aF494.04000000000002
aF380.88
aF-119.59999999999999
aa(lp138
g3
ag4
aI0
aF17.02897310256958
aF-0.31
aF-0.56999999999999995
aF0.14999999999999999
aI2553
aI-461
aI5222
aF483.92000000000002
aF397.44
aF-142.59999999999999
aa(lp139
g3
ag4
aI0
aF17.128833055496216
aF-0.33000000000000002
aF-0.56999999999999995
aF0.23000000000000001
aI9272
aI5810
aI16894
aF506
aF342.24000000000001
aF-140.75999999999999
aa(lp140
g3
ag4
aI0
aF17.242733001708984
aF-0.59999999999999998
aF-0.38
aF0.39000000000000001
aI11236
aI5853
aI18776
aF551.08000000000004
aF165.59999999999999
aF-111.31999999999999
aa(lp141
g3
ag4
aI0
aF17.382810115814209
aF-0.82999999999999996
aF-0.080000000000000002
aF0.38
aI11269
aI4432
aI18442
aF525.32000000000005
aF-29.440000000000001
aF-59.799999999999997
aa(lp142
g3
ag4
aI0
aF17.527834177017212
aF-0.83999999999999997
aF0.28999999999999998
aF0.34999999999999998
aI9396
aI3304
aI19777
aF434.24000000000001
aF-187.68000000000001
aF13.800000000000001
aa(lp143
g3
ag4
aI0
aF17.628133058547974
aF-0.84999999999999998
aF0.56999999999999995
aF0.28000000000000003
aI8160
aI5071
aI16624
aF294.39999999999998
aF-276.92000000000002
aF89.239999999999995
aa(lp144
g3
ag4
aI0
aF17.741222143173218
aF-0.83999999999999997
aF0.71999999999999997
aF0.23999999999999999
aI2564
aI1457
aI5838
aF172.03999999999999
aF-305.44
aF147.19999999999999
aa(lp145
g3
ag4
aI0
aF17.869004011154175
aF-0.88
aF0.81000000000000005
aF0.23000000000000001
aI-4270
aI-4272
aI-11419
aF183.08000000000001
aF-301.75999999999999
aF142.59999999999999
aa(lp146
g3
ag4
aI0
aF18.029021024703979
aF-0.95999999999999996
aF0.81999999999999995
aF0.32000000000000001
aI-12346
aI-9052
aI-24520
aF349.60000000000002
aF-253.91999999999999
aF63.479999999999997
aa(lp147
g3
ag4
aI0
aF18.129085063934326
aF-0.90000000000000002
aF0.58999999999999997
aF0.40000000000000002
aI-15263
aI-4546
aI-25087
aF506.92000000000002
aF-73.599999999999994
aF-45.079999999999998
aa(lp148
g3
ag4
aI0
aF18.248975038528442
aF-0.80000000000000004
aF0.17999999999999999
aF0.40999999999999998
aI-15677
aI-4842
aI-21456
aF551.08000000000004
aF163.75999999999999
aF-112.23999999999999
aa(lp149
g3
ag4
aI0
aF18.371657133102417
aF-0.48999999999999999
aF-0.20999999999999999
aF0.28000000000000003
aI-10064
aI-3994
aI-13120
aF508.75999999999999
aF354.19999999999999
aF-105.8
aa(lp150
g3
ag4
aI0
aF18.528994083404541
aF-0.29999999999999999
aF-0.53000000000000003
aF0.14000000000000001
aI880
aI-439
aI155
aF471.95999999999998
aF422.27999999999997
aF-120.52
aa(lp151
g3
ag4
aI0
aF18.628984212875366
aF-0.29999999999999999
aF-0.59999999999999998
aF0.19
aI10003
aI6382
aI15579
aF514.27999999999997
aF330.27999999999997
aF-120.52
aa(lp152
g3
ag4
aI0
aF18.750365018844604
aF-0.48999999999999999
aF-0.35999999999999999
aF0.34999999999999998
aI12181
aI5925
aI22171
aF547.39999999999998
aF120.52
aF-74.519999999999996
aa(lp153
g3
ag4
aI0
aF18.886625051498413
aF-0.78000000000000003
aF-0.089999999999999997
aF0.34000000000000002
aI11467
aI4568
aI21098
aF500.48000000000002
aF-81.879999999999995
aF-20.239999999999998
aa(lp154
g3
ag4
aI0
aF19.028926134109497
aF-0.84999999999999998
aF0.28999999999999998
aF0.32000000000000001
aI8887
aI3715
aI20211
aF443.44
aF-169.28
aF15.640000000000001
aa(lp155
g3
ag4
aI0
aF19.12872314453125
aF-0.77000000000000002
aF0.56000000000000005
aF0.23999999999999999
aI7134
aI4166
aI16800
aF303.60000000000002
aF-273.24000000000001
aF86.480000000000004
aa(lp156
g3
ag4
aI0
aF19.269221067428589
aF-0.84999999999999998
aF0.72999999999999998
aF0.20999999999999999
aI2694
aI-795
aI6305
aF175.72
aF-308.19999999999999
aF141.68000000000001
aa(lp157
g3
ag4
aI0
aF19.429007053375244
aF-0.94999999999999996
aF0.80000000000000004
aF0.27000000000000002
aI-7140
aI-7136
aI-16143
aF192.28
aF461.83999999999997
aF132.47999999999999
aa(lp158
g3
ag4
aI0
aF19.528940200805664
aF-0.93999999999999995
aF0.78000000000000003
aF0.35999999999999999
aI-13669
aI-6989
aI-26465
aF375.36000000000001
aF-239.19999999999999
aF34.960000000000001
aa(lp159
g3
ag4
aI0
aF19.639085054397583
aF-0.87
aF0.52000000000000002
aF0.40999999999999998
aI-17416
aI-4152
aI-24710
aF526.24000000000001
aF-28.52
aF-91.079999999999998
aa(lp160
g3
ag4
aI0
aF19.765300989151001
aF-0.70999999999999996
aF0.11
aF0.35999999999999999
aI-15022
aI-3371
aI-18724
aF543.72000000000003
aF223.56
aF-143.52000000000001
aa(lp161
g3
ag4
aI0
aF19.929037094116211
aF-0.46000000000000002
aF-0.32000000000000001
aF0.23000000000000001
aI-7458
aI-3650
aI-8720
aF488.51999999999998
aF389.16000000000003
aF-129.72
aa(lp162
g3
ag4
aI0
aF20.032673120498657
aF-0.27000000000000002
aF-0.57999999999999996
aF0.13
aI3789
aI2171
aI5617
aF465.51999999999998
aF430.56
aF-129.72
aa(lp163
g3
ag4
aI0
aF20.134103059768677
aF-0.32000000000000001
aF-0.56999999999999995
aF0.27000000000000002
aI10607
aI5586
aI19305
aF519.79999999999995
aF313.72000000000003
aF-128.80000000000001
aa(lp164
g3
ag4
aI0
aF20.282831192016602
aF-0.46999999999999997
aF-0.34999999999999998
aF0.23999999999999999
aI12009
aI5015
aI20755
aF552
aF102.12
aF-91.079999999999998
aa(lp165
g3
ag4
aI0
aF20.428635120391846
aF-0.68999999999999995
aF0
aF0.33000000000000002
aI13469
aI2002
aI19957
aF496.80000000000001
aF-100.28
aF-47.840000000000003
aa(lp166
g3
ag4
aI0
aF20.528969049453735
aF-0.83999999999999997
aF0.35999999999999999
aF0.34999999999999998
aI11769
aI3366
aI18923
aF375.36000000000001
aF-238.28
aF39.560000000000002
aa(lp167
g3
ag4
aI0
aF20.644110202789307
aF-0.78000000000000003
aF0.66000000000000003
aF0.28999999999999998
aI8895
aI5067
aI17512
aF218.03999999999999
aF-296.24000000000001
aF126.95999999999999
aa(lp168
g3
ag4
aI0
aF20.77549409866333
aF-0.68999999999999995
aF0.80000000000000004
aF0.20999999999999999
aI4082
aI2033
aI7509
aF142.59999999999999
aF-300.83999999999997
aF162.84
aa(lp169
g3
ag4
aI0
aF20.929084062576294
aF-0.68000000000000005
aF0.85999999999999999
aF0.17999999999999999
aI-3355
aI-3309
aI-7204
aF102.12
aF-296.24000000000001
aF181.24000000000001
aa(lp170
g3
ag4
aI0
aF21.029057025909424
aF-0.76000000000000001
aF0.91000000000000003
aF0.22
aI-9718
aI-7411
aI-20248
aF203.31999999999999
aF-297.16000000000003
aF142.59999999999999
aa(lp171
g3
ag4
aI0
aF21.151732206344604
aF-0.93000000000000005
aF0.77000000000000002
aF0.33000000000000002
aI-14279
aI-4744
aI-24891
aF391.92000000000002
aF-223.56
aF33.119999999999997
aa(lp172
g3
ag4
aI0
aF21.329102993011475
aF-0.88
aF0.45000000000000001
aF0.44
aI-15150
aI-4354
aI-23163
aF519.79999999999995
aF-29.440000000000001
aF-62.560000000000002
aa(lp173
g3
ag4
aI0
aF21.429160118103027
aF-0.77000000000000002
aF0.070000000000000007
aF0.39000000000000001
aI-16699
aI-2366
aI-20562
aF541.88
aF213.44
aF-127.88
aa(lp174
g3
ag4
aI0
aF21.541601181030273
aF-0.34999999999999998
aF-0.31
aF0.20000000000000001
aI-8143
aI-7339
aI-8443
aF488.51999999999998
aF403.88
aF-102.12
aa(lp175
g3
ag4
aI0
aF21.664113998413086
aF-0.20999999999999999
aF-0.56999999999999995
aF0.12
aI6425
aI4829
aI8056
aF460.92000000000002
aF441.60000000000002
aF-117.76000000000001
aa(lp176
g3
ag4
aI0
aF21.829022169113159
aF-0.20999999999999999
aF-0.51000000000000001
aF0.12
aI14364
aI6921
aI21458
aF518.88
aF323.83999999999997
aF-115.92
aa(lp177
g3
ag4
aI0
aF21.929030179977417
aF-0.53000000000000003
aF-0.11
aF0.28999999999999998
aI15809
aI5873
aI28259
aF544.63999999999999
aF66.239999999999995
aF-67.159999999999997
aa(lp178
g3
ag4
aI0
aF22.028990030288696
aF-0.83999999999999997
aF0.31
aF0.34000000000000002
aI12870
aI5765
aI24913
aF440.68000000000001
aF-170.19999999999999
aF23
aa(lp179
g3
ag4
aI0
aF22.144057035446167
aF-0.80000000000000004
aF0.63
aF0.20999999999999999
aI8572
aI6038
aI21458
aF263.12
aF-279.68000000000001
aF120.52
aa(lp180
g3
ag4
aI0
aF22.285443067550659
aF-0.75
aF0.79000000000000004
aF0.16
aI3284
aI2257
aI8588
aF115.92
aF-295.31999999999999
aF177.56
aa(lp181
g3
ag4
aI0
aF22.428958177566528
aF-0.71999999999999997
aF0.87
aF0.12
aI-1126
aI-3188
aI-2976
aF103.95999999999999
aF-291.63999999999999
aF183.08000000000001
aa(lp182
g3
ag4
aI0
aF22.529017210006714
aF-0.71999999999999997
aF0.92000000000000004
aF0.14000000000000001
aI-5685
aI-5820
aI-15987
aF203.31999999999999
aF-290.72000000000003
aF148.12
aa(lp183
g3
ag4
aI0
aF22.652884006500244
aF-0.84999999999999998
aF0.85999999999999999
aF0.25
aI-10569
aI-6719
aI-23208
aF391
aF-214.36000000000001
aF57.039999999999999
aa(lp184
g3
ag4
aI0
aF22.767921209335327
aF-0.92000000000000004
aF0.65000000000000002
aF0.37
aI-14449
aI-3135
aI-25586
aF472.88
aF-24.84
aF-29.440000000000001
aa(lp185
g3
ag4
aI0
aF22.929008007049561
aF-0.78000000000000003
aF0.20999999999999999
aF0.35999999999999999
aI-16467
aI-5755
aI-23985
aF551.08000000000004
aF101.2
aF-63.479999999999997
aa(lp186
g3
ag4
aI0
aF23.036705017089844
aF-0.47999999999999998
aF-0.19
aF0.26000000000000001
aI-12128
aI-2274
aI-17677
aF512.44000000000005
aF334.88
aF-79.120000000000005
aa(lp187
g3
ag4
aI0
aF23.149155139923096
aF-0.20999999999999999
aF-0.46999999999999997
aF0.040000000000000001
aI1449
aI115
aI1264
aF443.44
aF467.36000000000001
aF-59.799999999999997
aa(lp188
g3
ag4
aI0
aF23.288733005523682
aF-0.28000000000000003
aF-0.54000000000000004
aF0.11
aI12127
aI2948
aI20148
aF477.48000000000002
aF421.36000000000001
aF-76.359999999999999
aa(lp189
g3
ag4
aI0
aF23.428534030914307
aF-0.48999999999999999
aF-0.33000000000000002
aF0.29999999999999999
aI13545
aI3283
aI24590
aF549.24000000000001
aF208.84
aF-69.920000000000002
aa(lp190
g3
ag4
aI0
aF23.528770208358765
aF-0.79000000000000004
aF-0.02
aF0.40999999999999998
aI12365
aI3598
aI21504
aF526.24000000000001
aF-25.760000000000002
aF-39.560000000000002
aa(lp191
g3
ag4
aI0
aF23.64749002456665
aF-0.89000000000000001
aF0.34000000000000002
aF0.34999999999999998
aI10436
aI3437
aI19799
aF419.51999999999998
aF-187.68000000000001
aF39.560000000000002
aa(lp192
g3
ag4
aI0
aF23.767661094665527
aF-0.83999999999999997
aF0.56999999999999995
aF0.28000000000000003
aI6824
aI3925
aI15707
aF281.51999999999998
aF-272.31999999999999
aF113.16
aa(lp193
g3
ag4
aI0
aF23.92854118347168
aF-0.68999999999999995
aF0.75
aF0.17000000000000001
aI4138
aI4239
aI10390
aF161
aF-293.48000000000002
aF165.59999999999999
aa(lp194
g3
ag4
aI0
aF24.028307199478149
aF-0.64000000000000001
aF0.83999999999999997
aF0.14000000000000001
aI-1113
aI-3027
aI-1915
aF112.23999999999999
aF-289.80000000000001
aF184
aa(lp195
g3
ag4
aI0
aF24.145116090774536
aF-0.72999999999999998
aF0.89000000000000001
aF0.14999999999999999
aI-6500
aI-6120
aI-14981
aF201.47999999999999
aF-292.56
aF146.28
aa(lp196
g3
ag4
aI0
aF24.288856029510498
aF-0.83999999999999997
aF0.85999999999999999
aF0.27000000000000002
aI-11297
aI-8096
aI-23475
aF370.75999999999999
aF-230.91999999999999
aF54.280000000000001
aa(lp197
g3
ag4
aI0
aF24.428596019744873
aF-0.83999999999999997
aF0.60999999999999999
aF0.40000000000000002
aI-15577
aI-6490
aI-25817
aF518.88
aF-40.479999999999997
aF-55.200000000000003
aa(lp198
g3
ag4
aI0
aF24.566811084747314
aF-0.69999999999999996
aF0.17999999999999999
aF0.41999999999999998
aI-17879
aI-3813
aI-23134
aF544.63999999999999
aF218.96000000000001
aF-120.52
aa(lp199
g3
ag4
aI0
aF24.728649139404297
aF-0.44
aF-0.17999999999999999
aF0.23999999999999999
aI-12398
aI-3892
aI-14157
aF476.56
aF414
aF-110.40000000000001
aa(lp200
g3
ag4
aI0
aF24.828569173812866
aF-0.25
aF-0.48999999999999999
aF0.13
aI2637
aI-108
aI1750
aF446.19999999999999
aF457.24000000000001
aF-112.23999999999999
aa(lp201
g3
ag4
aI0
aF24.927707195281982
aF-0.23999999999999999
aF-0.56999999999999995
aF0.19
aI12029
aI6487
aI17111
aF510.60000000000002
aF346.83999999999997
aF-120.52
aa(lp202
g3
ag4
aI0
aF25.051308155059814
aF-0.53000000000000003
aF-0.33000000000000002
aF0.38
aI13888
aI2127
aI22911
aF540.96000000000004
aF238.28
aF-113.16
aa.