(lp0
(lp1
S'lisa'
p2
aS'bicep curls'
p3
aI0
aF0.00016689300537109375
aF0.54
aF0.43
aF-0.68
aI25
aI-54
aI-63
aF-323.84
aF150.88
aF245.64
aa(lp4
g2
ag3
aI0
aF0.235260009765625
aF0.54
aF0.43
aF-0.68
aI28
aI-85
aI-4
aF-322.0
aF152.72
aF247.48
aa(lp5
g2
ag3
aI0
aF0.3788790702819824
aF0.54
aF0.42
aF-0.68
aI31
aI-62
aI53
aF-321.08
aF154.56
aF243.8
aa(lp6
g2
ag3
aI0
aF0.5340180397033691
aF0.54
aF0.42
aF-0.68
aI41
aI-6
aI63
aF-323.84
aF153.64
aF245.64
aa(lp7
g2
ag3
aI0
aF0.6346879005432129
aF0.54
aF0.42
aF-0.68
aI-2
aI-127
aI141
aF-322.0
aF152.72
aF247.48
aa(lp8
g2
ag3
aI0
aF0.7331368923187256
aF0.53
aF0.42
aF-0.69
aI60
aI-134
aI112
aF-318.32
aF153.64
aF246.56
aa(lp9
g2
ag3
aI0
aF0.8563671112060547
aF0.53
aF0.42
aF-0.69
aI-72
aI-90
aI123
aF-319.24
aF152.72
aF245.64
aa(lp10
g2
ag3
aI0
aF0.9714629650115967
aF0.53
aF0.42
aF-0.69
aI24
aI-76
aI87
aF-320.16
aF155.48
aF246.56
aa(lp11
g2
ag3
aI0
aF1.1339280605316162
aF0.54
aF0.42
aF-0.7
aI585
aI-1304
aI-161
aF-320.16
aF154.56
aF248.4
aa(lp12
g2
ag3
aI0
aF1.2346880435943604
aF0.51
aF0.42
aF-0.72
aI1946
aI-3286
aI429
aF-306.36
aF157.32
aF257.6
aa(lp13
g2
ag3
aI0
aF1.3349099159240723
aF0.56
aF0.36
aF-0.79
aI4911
aI-8217
aI4437
aF-277.84
aF177.56
aF272.32
aa(lp14
g2
ag3
aI0
aF1.4639520645141602
aF0.41
aF0.28
aF-0.82
aI9374
aI-21613
aI5346
aF-173.88
aF247.48
aF313.72
aa(lp15
g2
ag3
aI0
aF1.633760929107666
aF0.05
aF0.16
aF-0.66
aI9533
aI-32768
aI3130
aF93.84
aF335.8
aF317.4
aa(lp16
g2
ag3
aI0
aF1.73494291305542
aF-0.47
aF0.13
aF-0.36
aI6223
aI-28135
aI4307
aF391.92
aF376.28
aF145.36
aa(lp17
g2
ag3
aI0
aF1.8348689079284668
aF-0.85
aF0.1
aF-0.18
aI3199
aI-4671
aI-213
aF474.72
aF368.92
aF0.0
aa(lp18
g2
ag3
aI0
aF1.9363429546356201
aF-1.03
aF-0.02
aF-0.09
aI1027
aI-1969
aI-9505
aF463.68
aF411.24
aF-30.36
aa(lp19
g2
ag3
aI0
aF2.0699410438537598
aF-1.04
aF-0.17
aF-0.03
aI1129
aI-367
aI-17190
aF383.64
aF518.88
aF-39.56
aa(lp20
g2
ag3
aI0
aF2.234963893890381
aF-0.88
aF-0.36
aF0.02
aI-28
aI942
aI-19505
aF242.88
aF626.52
aF-40.48
aa(lp21
g2
ag3
aI0
aF2.3348701000213623
aF-0.65
aF-0.54
aF0.03
aI-1583
aI544
aI-16922
aF72.68
aF670.68
aF-33.12
aa(lp22
g2
ag3
aI0
aF2.4550530910491943
aF-0.43
aF-0.7
aF0.03
aI-2544
aI-125
aI-12177
aF-61.64
aF656.88
aF-11.96
aa(lp23
g2
ag3
aI0
aF2.578634023666382
aF-0.19
aF-0.85
aF-0.03
aI-1436
aI2805
aI-8651
aF-115.0
aF641.24
aF-4.6
aa(lp24
g2
ag3
aI0
aF2.7347609996795654
aF0.03
aF-0.95
aF-0.06
aI-708
aI1396
aI-4253
aF-189.52
aF609.04
aF-5.52
aa(lp25
g2
ag3
aI0
aF2.834805965423584
aF0.15
aF-0.98
aF-0.09
aI323
aI51
aI2762
aF-216.2
aF595.24
aF-5.52
aa(lp26
g2
ag3
aI0
aF2.9463789463043213
aF0.13
aF-1.0
aF-0.08
aI1071
aI-765
aI9001
aF-184.0
aF614.56
aF-9.2
aa(lp27
g2
ag3
aI0
aF3.065016984939575
aF0.0
aF-0.97
aF-0.05
aI1776
aI-2559
aI13136
aF-88.32
aF653.2
aF-13.8
aa(lp28
g2
ag3
aI0
aF3.185148000717163
aF-0.21
aF-0.89
aF-0.02
aI2385
aI-374
aI15178
aF47.84
aF673.44
aF-25.76
aa(lp29
g2
ag3
aI0
aF3.333909034729004
aF-0.43
aF-0.75
aF0.03
aI2281
aI-3231
aI15832
aF195.04
aF646.76
aF-49.68
aa(lp30
g2
ag3
aI0
aF3.456515073776245
aF-0.66
aF-0.55
aF0.09
aI3125
aI-2552
aI15765
aF332.12
aF578.68
aF-80.96
aa(lp31
g2
ag3
aI0
aF3.576469898223877
aF-0.82
aF-0.32
aF0.15
aI2759
aI860
aI13810
aF429.64
aF477.48
aF-103.96
aa(lp32
g2
ag3
aI0
aF3.7348649501800537
aF-0.94
aF-0.14
aF0.17
aI1455
aI101
aI10525
aF486.68
aF379.04
aF-107.64
aa(lp33
g2
ag3
aI0
aF3.8347890377044678
aF-0.99
aF0.04
aF0.18
aI1115
aI-1039
aI6906
aF517.96
aF304.52
aF-114.08
aa(lp34
g2
ag3
aI0
aF3.936434030532837
aF-1.09
aF0.12
aF0.21
aI-455
aI-952
aI-1127
aF525.32
aF292.56
aF-124.2
aa(lp35
g2
ag3
aI0
aF4.059946060180664
aF-1.11
aF0.14
aF0.22
aI-1306
aI-730
aI-9219
aF516.12
aF310.96
aF-126.96
aa(lp36
g2
ag3
aI0
aF4.201339960098267
aF-1.11
aF0.05
aF0.24
aI-2445
aI10
aI-15718
aF477.48
aF397.44
aF-128.8
aa(lp37
g2
ag3
aI0
aF4.33473801612854
aF-1.01
aF-0.16
aF0.22
aI-3318
aI2780
aI-19810
aF384.56
aF530.84
aF-112.24
aa(lp38
g2
ag3
aI0
aF4.44894003868103
aF-0.81
aF-0.38
aF0.16
aI-2710
aI4789
aI-19250
aF222.64
aF638.48
aF-74.52
aa(lp39
g2
ag3
aI0
aF4.566183090209961
aF-0.55
aF-0.59
aF0.11
aI-1933
aI3459
aI-15960
aF51.52
aF673.44
aF-49.68
aa(lp40
g2
ag3
aI0
aF4.7338480949401855
aF-0.32
aF-0.75
aF0.07
aI-2028
aI156
aI-11695
aF-86.48
aF655.04
aF-35.88
aa(lp41
g2
ag3
aI0
aF4.834808111190796
aF-0.08
aF-0.89
aF-0.01
aI-1753
aI1829
aI-7595
aF-182.16
aF617.32
aF-23.92
aa(lp42
g2
ag3
aI0
aF4.963749885559082
aF0.14
aF-0.97
aF-0.06
aI-858
aI2056
aI-3135
aF-241.04
aF586.04
aF-27.6
aa(lp43
g2
ag3
aI0
aF5.08004093170166
aF0.23
aF-0.98
aF-0.09
aI392
aI-1113
aI5086
aF-245.64
aF582.36
aF-26.68
aa(lp44
g2
ag3
aI0
aF5.234798908233643
aF0.18
aF-0.99
aF-0.08
aI1447
aI-407
aI11679
aF-172.04
aF623.76
aF-27.6
aa(lp45
g2
ag3
aI0
aF5.334805011749268
aF-0.0
aF-0.96
aF-0.06
aI721
aI-1440
aI16261
aF-39.56
aF660.56
aF-37.72
aa(lp46
g2
ag3
aI0
aF5.454070091247559
aF-0.22
aF-0.81
aF-0.03
aI676
aI-3357
aI19689
aF129.72
aF657.8
aF-44.16
aa(lp47
g2
ag3
aI0
aF5.580050945281982
aF-0.53
aF-0.56
aF0.05
aI2111
aI-6532
aI19183
aF308.2
aF586.04
aF-69.0
aa(lp48
g2
ag3
aI0
aF5.734744071960449
aF-0.76
aF-0.3
aF0.11
aI2813
aI131
aI17192
aF430.56
aF471.96
aF-96.6
aa(lp49
g2
ag3
aI0
aF5.834244012832642
aF-0.93
aF-0.07
aF0.14
aI1451
aI-1771
aI14196
aF471.96
aF405.72
aF-102.12
aa(lp50
g2
ag3
aI0
aF5.9464850425720215
aF-1.05
aF0.09
aF0.17
aI562
aI-1124
aI7446
aF520.72
aF291.64
aF-114.08
aa(lp51
g2
ag3
aI0
aF6.060102939605713
aF-1.11
aF0.19
aF0.19
aI-339
aI-976
aI-1903
aF540.04
aF244.72
aF-122.36
aa(lp52
g2
ag3
aI0
aF6.207540035247803
aF-1.14
aF0.22
aF0.23
aI-1424
aI-1472
aI-11767
aF519.8
aF286.12
aF-129.72
aa(lp53
g2
ag3
aI0
aF6.333903074264526
aF-1.11
aF0.08
aF0.25
aI-3594
aI322
aI-19758
aF471.04
aF410.32
aF-132.48
aa(lp54
g2
ag3
aI0
aF6.438910961151123
aF-0.98
aF-0.14
aF0.22
aI-4350
aI4370
aI-21406
aF347.76
aF561.2
aF-101.2
aa(lp55
g2
ag3
aI0
aF6.580008029937744
aF-0.75
aF-0.37
aF0.15
aI-2766
aI5505
aI-18416
aF172.04
aF651.36
aF-57.04
aa(lp56
g2
ag3
aI0
aF6.733755111694336
aF-0.47
aF-0.59
aF0.08
aI-2152
aI1478
aI-13611
aF12.88
aF666.08
aF-36.8
aa(lp57
g2
ag3
aI0
aF6.834701061248779
aF-0.27
aF-0.76
aF0.01
aI-2355
aI-3721
aI-8879
aF-100.28
aF643.08
aF-12.88
aa(lp58
g2
ag3
aI0
aF6.9664599895477295
aF-0.12
aF-0.91
aF-0.07
aI-2622
aI-3082
aI-6287
aF-159.16
aF612.72
aF14.72
aa(lp59
g2
ag3
aI0
aF7.134785890579224
aF0.04
aF-0.97
aF-0.14
aI-1058
aI2251
aI-3257
aF-207.92
aF583.28
aF31.28
aa(lp60
g2
ag3
aI0
aF7.234760999679565
aF0.14
aF-0.98
aF-0.15
aI1262
aI410
aI3853
aF-213.44
aF586.04
aF23.0
aa(lp61
g2
ag3
aI0
aF7.334737062454224
aF0.11
aF-0.98
aF-0.14
aI2514
aI701
aI10529
aF-149.96
aF621.0
aF6.44
aa(lp62
g2
ag3
aI0
aF7.440152883529663
aF-0.03
aF-0.93
aF-0.11
aI2276
aI642
aI15999
aF-22.08
aF661.48
aF-16.56
aa(lp63
g2
ag3
aI0
aF7.5901360511779785
aF-0.26
aF-0.8
aF-0.06
aI2691
aI-2829
aI19218
aF60.72
aF664.24
aF-25.76
aa(lp64
g2
ag3
aI0
aF7.734663009643555
aF-0.53
aF-0.59
aF0.02
aI4812
aI-6726
aI20300
aF243.8
aF627.44
aF-56.12
aa(lp65
g2
ag3
aI0
aF7.833461046218872
aF-0.8
aF-0.35
aF0.14
aI4889
aI52
aI16864
aF391.92
aF515.2
aF-110.4
aa(lp66
g2
ag3
aI0
aF7.946460008621216
aF-0.91
aF-0.08
aF0.18
aI3205
aI569
aI14716
aF485.76
aF386.4
aF-123.28
aa(lp67
g2
ag3
aI0
aF8.065040111541748
aF-1.08
aF0.11
aF0.23
aI390
aI-3211
aI5405
aF525.32
aF276.92
aF-140.76
aa(lp68
g2
ag3
aI0
aF8.187686920166016
aF-1.16
aF0.18
aF0.26
aI-1838
aI583
aI-6875
aF523.48
aF272.32
aF-150.88
aa(lp69
g2
ag3
aI0
aF8.334791898727417
aF-1.16
aF0.15
aF0.28
aI-4194
aI-263
aI-17913
aF486.68
aF374.44
aF-145.36
aa(lp70
g2
ag3
aI0
aF8.444961071014404
aF-1.05
aF-0.05
aF0.25
aI-5439
aI1775
aI-22432
aF379.96
aF531.76
aF-115.92
aa(lp71
g2
ag3
aI0
aF8.558804988861084
aF-0.82
aF-0.3
aF0.18
aI-4699
aI4517
aI-20954
aF197.8
aF640.32
aF-68.08
aa(lp72
g2
ag3
aI0
aF8.6975839138031
aF-0.54
aF-0.52
aF0.1
aI-3969
aI2706
aI-16586
aF18.4
aF667.92
aF-30.36
aa(lp73
g2
ag3
aI0
aF8.834796905517578
aF-0.29
aF-0.7
aF0.01
aI-2665
aI1823
aI-11494
aF-121.44
aF634.8
aF-10.12
aa(lp74
g2
ag3
aI0
aF8.936305046081543
aF-0.03
aF-0.87
aF-0.1
aI-1500
aI107
aI-6424
aF-203.32
aF600.76
aF2.76
aa(lp75
g2
ag3
aI0
aF9.085277080535889
aF0.16
aF-0.96
aF-0.12
aI-227
aI2651
aI1327
aF-222.64
aF586.04
aF1.84
aa(lp76
g2
ag3
aI0
aF9.23375391960144
aF0.18
aF-0.98
aF-0.12
aI2042
aI-1134
aI8945
aF-209.76
aF600.76
aF-4.6
aa(lp77
g2
ag3
aI0
aF9.334666013717651
aF0.05
aF-0.97
aF-0.09
aI2573
aI-4
aI14882
aF-121.44
aF639.4
aF-20.24
aa(lp78
g2
ag3
aI0
aF9.434624910354614
aF-0.19
aF-0.85
aF-0.03
aI2128
aI-2092
aI18590
aF30.36
aF666.08
aF-39.56
aa(lp79
g2
ag3
aI0
aF9.568828105926514
aF-0.46
aF-0.65
aF0.02
aI3125
aI-4936
aI18688
aF207.92
aF638.48
aF-58.88
aa(lp80
g2
ag3
aI0
aF9.734740972518921
aF-0.76
aF-0.43
aF0.12
aI2353
aI-1735
aI16992
aF355.12
aF547.4
aF-97.52
aa(lp81
g2
ag3
aI0
aF9.834700107574463
aF-0.87
aF-0.17
aF0.14
aI2444
aI-188
aI15749
aF458.16
aF428.72
aF-108.56
aa(lp82
g2
ag3
aI0
aF9.96021294593811
aF-0.96
aF0.06
aF0.17
aI1992
aI-1325
aI11577
aF509.68
aF302.68
aF-125.12
aa(lp83
g2
ag3
aI0
aF10.073851108551025
aF-1.04
aF0.2
aF0.17
aI271
aI-432
aI4082
aF531.76
aF225.4
aF-127.88
aa(lp84
g2
ag3
aI0
aF10.234742879867554
aF-1.1
aF0.27
aF0.2
aI-935
aI-1355
aI-4308
aF537.28
aF224.48
aF-137.08
aa(lp85
g2
ag3
aI0
aF10.334667921066284
aF-1.1
aF0.28
aF0.23
aI-2347
aI-811
aI-12798
aF512.44
aF298.08
aF-140.76
aa(lp86
g2
ag3
aI0
aF10.442636966705322
aF-1.08
aF0.13
aF0.24
aI-4417
aI566
aI-20193
aF445.28
aF448.04
aF-134.32
aa(lp87
g2
ag3
aI0
aF10.56370496749878
aF-0.94
aF-0.11
aF0.2
aI-4740
aI3464
aI-21634
aF300.84
aF594.32
aF-93.84
aa(lp88
g2
ag3
aI0
aF10.734791994094849
aF-0.7
aF-0.37
aF0.14
aI-4404
aI3217
aI-18235
aF126.04
aF662.4
aF-52.44
aa(lp89
g2
ag3
aI0
aF10.834731101989746
aF-0.47
aF-0.61
aF0.05
aI-3505
aI-1474
aI-13888
aF46.0
aF668.84
aF-34.96
aa(lp90
g2
ag3
aI0
aF10.947715044021606
aF-0.23
aF-0.8
aF-0.03
aI-1662
aI2671
aI-7921
aF-80.96
aF648.6
aF-12.88
aa(lp91
g2
ag3
aI0
aF11.080156087875366
aF-0.03
aF-0.92
aF-0.08
aI-153
aI1591
aI-1231
aF-145.36
aF626.52
aF-1.84
aa(lp92
g2
ag3
aI0
aF11.233863115310669
aF0.04
aF-0.96
aF-0.09
aI1807
aI-1272
aI6839
aF-151.8
aF627.44
aF-8.28
aa(lp93
g2
ag3
aI0
aF11.333837032318115
aF-0.06
aF-0.94
aF-0.06
aI2739
aI-717
aI14146
aF-68.08
aF656.88
aF-22.08
aa(lp94
g2
ag3
aI0
aF11.466593980789185
aF-0.27
aF-0.83
aF-0.0
aI3068
aI-658
aI18687
aF79.12
aF668.84
aF-43.24
aa(lp95
g2
ag3
aI0
aF11.634768009185791
aF-0.53
aF-0.62
aF0.05
aI3439
aI-4690
aI18295
aF249.32
aF621.0
aF-69.0
aa(lp96
g2
ag3
aI0
aF11.734131097793579
aF-0.77
aF-0.4
aF0.14
aI2969
aI-4
aI16074
aF390.08
aF525.32
aF-105.8
aa(lp97
g2
ag3
aI0
aF11.834245920181274
aF-0.92
aF-0.17
aF0.19
aI2548
aI-727
aI13550
aF472.88
aF410.32
aF-120.52
aa(lp98
g2
ag3
aI0
aF11.934623003005981
aF-1.01
aF0.05
aF0.21
aI1758
aI-24
aI10201
aF514.28
aF308.2
aF-128.8
aa(lp99
g2
ag3
aI0
aF12.076487064361572
aF-1.09
aF0.16
aF0.21
aI297
aI-1116
aI1188
aF529.0
aF255.76
aF-139.84
aa(lp100
g2
ag3
aI0
aF12.234214067459106
aF-1.13
aF0.21
aF0.23
aI-1232
aI-491
aI-8048
aF518.88
aF292.56
aF-143.52
aa(lp101
g2
ag3
aI0
aF12.333722114562988
aF-1.12
aF0.14
aF0.25
aI-3695
aI-1544
aI-17564
aF468.28
aF414.0
aF-142.6
aa(lp102
g2
ag3
aI0
aF12.436399936676025
aF-1.07
aF-0.08
aF0.26
aI-5520
aI2687
aI-22515
aF341.32
aF566.72
aF-119.6
aa(lp103
g2
ag3
aI0
aF12.579813957214355
aF-0.83
aF-0.32
aF0.2
aI-4747
aI5269
aI-21018
aF250.24
aF620.08
aF-92.92
aa(lp104
g2
ag3
aI0
aF12.734682083129883
aF-0.55
aF-0.54
aF0.11
aI-4294
aI-960
aI-16840
aF61.64
aF666.08
aF-46.92
aa(lp105
g2
ag3
aI0
aF12.833014965057373
aF-0.26
aF-0.74
aF0.01
aI-1994
aI4107
aI-11915
aF-95.68
aF644.0
aF-18.4
aa(lp106
g2
ag3
aI0
aF12.959948062896729
aF0.01
aF-0.89
aF-0.06
aI-306
aI492
aI-4869
aF-194.12
aF608.12
aF-15.64
aa(lp107
g2
ag3
aI0
aF13.057732105255127
aF0.15
aF-0.95
aF-0.08
aI1378
aI-615
aI2934
aF-218.96
aF592.48
aF-15.64
aa(lp108
g2
ag3
aI0
aF13.19640302658081
aF0.14
aF-0.97
aF-0.07
aI2255
aI-196
aI11498
aF-174.8
aF618.24
aF-28.52
aa(lp109
g2
ag3
aI0
aF13.334644079208374
aF-0.01
aF-0.93
aF-0.02
aI1746
aI2563
aI17457
aF-49.68
aF663.32
aF-46.92
aa(lp110
g2
ag3
aI0
aF13.45537805557251
aF-0.25
aF-0.79
aF0.01
aI281
aI-3228
aI20105
aF122.36
aF662.4
aF-58.88
aa(lp111
g2
ag3
aI0
aF13.597562074661255
aF-0.57
aF-0.52
aF0.08
aI2540
aI-9438
aI20349
aF306.36
aF586.96
aF-84.64
aa(lp112
g2
ag3
aI0
aF13.734539031982422
aF-0.85
aF-0.28
aF0.15
aI3856
aI1214
aI15974
aF433.32
aF468.28
aF-126.96
aa(lp113
g2
ag3
aI0
aF13.83383297920227
aF-0.96
aF-0.05
aF0.17
aI997
aI2398
aI13538
aF500.48
aF346.84
aF-108.56
aa(lp114
g2
ag3
aI0
aF13.934170007705688
aF-1.04
aF0.11
aF0.18
aI-285
aI-3255
aI6698
aF529.92
aF258.52
aF-117.76
aa(lp115
g2
ag3
aI0
aF14.07896089553833
aF-1.11
aF0.2
aF0.19
aI-351
aI1580
aI-3916
aF529.92
aF259.44
aF-122.36
aa(lp116
g2
ag3
aI0
aF14.23392105102539
aF-1.13
aF0.23
aF0.21
aI-936
aI-667
aI-11617
aF525.32
aF286.12
aF-116.84
aa(lp117
g2
ag3
aI0
aF14.334644079208374
aF-1.11
aF0.09
aF0.2
aI-2316
aI1709
aI-19939
aF483.92
aF397.44
aF-115.0
aa(lp118
g2
ag3
aI0
aF14.44019603729248
aF-0.97
aF-0.17
aF0.18
aI-4164
aI641
aI-22677
aF359.72
aF552.92
aF-91.08
aa(lp119
g2
ag3
aI0
aF14.562762975692749
aF-0.71
aF-0.4
aF0.12
aI-4654
aI4415
aI-19018
aF176.64
aF650.44
aF-57.96
aa(lp120
g2
ag3
aI0
aF14.734571933746338
aF-0.42
aF-0.6
aF0.04
aI-2932
aI3724
aI-13263
aF3.68
aF665.16
aF-23.92
aa(lp121
g2
ag3
aI0
aF14.834650039672852
aF-0.19
aF-0.78
aF-0.05
aI-2260
aI-436
aI-7401
aF-110.4
aF638.48
aF-6.44
aa(lp122
g2
ag3
aI0
aF14.956599950790405
aF0.01
aF-0.92
aF-0.13
aI-953
aI1151
aI-1442
aF-171.12
aF611.8
aF11.04
aa(lp123
g2
ag3
aI0
aF15.071456909179688
aF0.07
aF-0.97
aF-0.16
aI1410
aI-1062
aI5816
aF-164.68
aF616.4
aF8.28
aa(lp124
g2
ag3
aI0
aF15.234519958496094
aF-0.0
aF-0.95
aF-0.13
aI2837
aI-1774
aI11486
aF-84.64
aF647.68
aF0.0
aa(lp125
g2
ag3
aI0
aF15.336329936981201
aF-0.17
aF-0.87
aF-0.08
aI3259
aI-2057
aI16137
aF44.16
aF666.08
aF-25.76
aa(lp126
g2
ag3
aI0
aF15.460200071334839
aF-0.4
aF-0.7
aF0.0
aI4302
aI-4501
aI19574
aF218.04
aF637.56
aF-60.72
aa(lp127
g2
ag3
aI0
aF15.634716987609863
aF-0.67
aF-0.45
aF0.13
aI5470
aI-5567
aI19453
aF374.44
aF538.2
aF-114.08
aa(lp128
g2
ag3
aI0
aF15.734278917312622
aF-0.89
aF-0.18
aF0.19
aI3389
aI4581
aI16831
aF473.8
aF399.28
aF-136.16
aa(lp129
g2
ag3
aI0
aF15.834420919418335
aF-0.97
aF0.08
aF0.2
aI1483
aI-709
aI12370
aF526.24
aF276.0
aF-126.04
aa(lp130
g2
ag3
aI0
aF15.938936948776245
aF-1.09
aF0.21
aF0.21
aI-72
aI50
aI1785
aF537.28
aF240.12
aF-130.64
aa(lp131
g2
ag3
aI0
aF16.06390690803528
aF-1.11
aF0.27
aF0.21
aI-867
aI-418
aI-7986
aF536.36
aF239.2
aF-132.48
aa(lp132
g2
ag3
aI0
aF16.234503030776978
aF-1.13
aF0.21
aF0.23
aI-2640
aI-763
aI-16482
aF511.52
aF324.76
aF-135.24
aa(lp133
g2
ag3
aI0
aF16.333498001098633
aF-1.08
aF0.02
aF0.22
aI-3755
aI1735
aI-21941
aF428.72
aF476.56
aF-124.2
aa(lp134
g2
ag3
aI0
aF16.438770055770874
aF-0.88
aF-0.25
aF0.18
aI-4707
aI12
aI-21910
aF272.32
aF614.56
aF-90.16
aa(lp135
g2
ag3
aI0
aF16.562493085861206
aF-0.63
aF-0.48
aF0.14
aI-4168
aI2816
aI-16866
aF82.8
aF666.08
aF-54.28
aa(lp136
g2
ag3
aI0
aF16.734565019607544
aF-0.36
aF-0.67
aF0.07
aI-2948
aI2954
aI-10779
aF-59.8
aF657.8
aF-29.44
aa(lp137
g2
ag3
aI0
aF16.834637880325317
aF-0.14
aF-0.84
aF-0.02
aI-2312
aI936
aI-4763
aF-145.36
aF629.28
aF-13.8
aa(lp138
g2
ag3
aI0
aF16.944021940231323
aF-0.01
aF-0.95
aF-0.09
aI-260
aI754
aI669
aF-170.2
aF617.32
aF-2.76
aa(lp139
g2
ag3
aI0
aF17.0576810836792
aF0.04
aF-0.98
aF-0.11
aI2138
aI227
aI6445
aF-138.92
aF635.72
aF-17.48
aa(lp140
g2
ag3
aI0
aF17.185040950775146
aF-0.02
aF-0.94
aF-0.08
aI3427
aI-2096
aI13433
aF-42.32
aF660.56
aF-33.12
aa(lp141
g2
ag3
aI0
aF17.33462905883789
aF-0.22
aF-0.83
aF-0.0
aI3351
aI-1095
aI19326
aF122.36
aF665.16
aF-58.88
aa(lp142
g2
ag3
aI0
aF17.44378399848938
aF-0.54
aF-0.6
aF0.09
aI3324
aI-7117
aI21010
aF307.28
aF593.4
aF-95.68
aa(lp143
g2
ag3
aI0
aF17.56536293029785
aF-0.82
aF-0.33
aF0.16
aI3210
aI1291
aI17493
aF380.88
aF531.76
aF-118.68
aa(lp144
g2
ag3
aI0
aF17.73326802253723
aF-0.95
aF-0.12
aF0.17
aI837
aI804
aI13049
aF473.8
aF406.64
aF-121.44
aa(lp145
g2
ag3
aI0
aF17.833937883377075
aF-1.07
aF0.06
aF0.19
aI268
aI-2175
aI5840
aF518.88
aF308.2
aF-122.36
aa(lp146
g2
ag3
aI0
aF17.93757700920105
aF-1.12
aF0.15
aF0.19
aI-573
aI1016
aI-3453
aF529.92
aF278.76
aF-134.32
aa(lp147
g2
ag3
aI0
aF18.07767391204834
aF-1.15
aF0.16
aF0.2
aI-1438
aI-774
aI-12481
aF506.92
aF333.96
aF-129.72
aa(lp148
g2
ag3
aI0
aF18.23393988609314
aF-1.09
aF-0.01
aF0.2
aI-3040
aI1540
aI-20053
aF440.68
aF462.76
aF-123.28
aa(lp149
g2
ag3
aI0
aF18.33457589149475
aF-0.95
aF-0.24
aF0.19
aI-3686
aI2638
aI-22627
aF293.48
aF602.6
aF-92.92
aa(lp150
g2
ag3
aI0
aF18.440212965011597
aF-0.67
aF-0.47
aF0.13
aI-3653
aI2194
aI-18897
aF100.28
aF668.84
aF-57.96
aa(lp151
g2
ag3
aI0
aF18.556360006332397
aF-0.41
aF-0.65
aF0.06
aI-3088
aI33
aI-12851
aF-64.4
aF657.8
aF-33.12
aa(lp152
g2
ag3
aI0
aF18.712811946868896
aF-0.16
aF-0.82
aF-0.02
aI-1557
aI1859
aI-7917
aF-162.84
aF622.84
aF-16.56
aa(lp153
g2
ag3
aI0
aF18.834506034851074
aF0.06
aF-0.94
aF-0.09
aI-460
aI-53
aI-3335
aF-218.04
aF595.24
aF-11.04
aa(lp154
g2
ag3
aI0
aF18.946465015411377
aF0.16
aF-0.98
aF-0.1
aI1703
aI-17
aI4673
aF-208.84
aF600.76
aF-13.8
aa(lp155
g2
ag3
aI0
aF19.067900896072388
aF0.12
aF-0.98
aF-0.07
aI2541
aI663
aI11674
aF-132.48
aF638.48
aF-30.36
aa(lp156
g2
ag3
aI0
aF19.234519958496094
aF-0.03
aF-0.92
aF-0.04
aI2411
aI-60
aI17607
aF-69.0
aF659.64
aF-44.16
aa(lp157
g2
ag3
aI0
aF19.35281205177307
aF-0.31
aF-0.74
aF0.03
aI3473
aI-4478
aI20965
aF114.08
aF667.92
aF-66.24
aa(lp158
g2
ag3
aI0
aF19.435039043426514
aF-0.58
aF-0.48
aF0.09
aI4024
aI-2178
aI20572
aF299.0
aF602.6
aF-102.12
aa(lp159
g2
ag3
aI0
aF19.552620887756348
aF-0.83
aF-0.25
aF0.16
aI3080
aI2442
aI17327
aF430.56
aF473.8
aF-131.56
aa(lp160
g2
ag3
aI0
aF19.6913480758667
aF-0.97
aF0.03
aF0.19
aI1598
aI-1705
aI13892
aF506.0
aF333.96
aF-134.32
aa(lp161
g2
ag3
aI0
aF19.833484888076782
aF-1.11
aF0.19
aF0.22
aI-365
aI-1399
aI2564
aF529.0
aF239.2
aF-153.64
aa(lp162
g2
ag3
aI0
aF19.933181047439575
aF-1.14
aF0.24
aF0.23
aI-1484
aI790
aI-9035
aF529.92
aF255.76
aF-149.96
aa(lp163
g2
ag3
aI0
aF20.075488090515137
aF-1.12
aF0.2
aF0.24
aI-2945
aI1518
aI-17482
aF487.6
aF367.08
aF-145.36
aa(lp164
g2
ag3
aI0
aF20.23456311225891
aF-1.03
aF-0.0
aF0.21
aI-2792
aI2899
aI-21707
aF393.76
aF520.72
aF-112.24
aa(lp165
g2
ag3
aI0
aF20.333972930908203
aF-0.83
aF-0.28
aF0.15
aI-3221
aI2720
aI-20685
aF222.64
aF640.32
aF-86.48
aa(lp166
g2
ag3
aI0
aF20.43884801864624
aF-0.56
aF-0.52
aF0.09
aI-4929
aI2824
aI-16481
aF44.16
aF674.36
aF-46.92
aa(lp167
g2
ag3
aI0
aF20.586477041244507
aF-0.29
aF-0.72
aF0.01
aI-3060
aI2491
aI-11289
aF-91.08
aF655.04
aF-19.32
aa(lp168
g2
ag3
aI0
aF20.73443293571472
aF-0.06
aF-0.88
aF-0.09
aI-2381
aI-2612
aI-4252
aF-168.36
aF622.84
aF-0.92
aa(lp169
g2
ag3
aI0
aF20.83311891555786
aF0.05
aF-0.95
aF-0.16
aI527
aI1327
aI3501
aF-165.6
aF621.0
aF9.2
aa(lp170
g2
ag3
aI0
aF20.940120935440063
aF0.03
aF-0.95
aF-0.16
aI2195
aI-1408
aI10552
aF-139.84
aF632.04
aF2.76
aa(lp171
g2
ag3
aI0
aF21.05395197868347
aF-0.13
aF-0.89
aF-0.09
aI2382
aI-2454
aI16125
aF-30.36
aF661.48
aF-12.88
aa(lp172
g2
ag3
aI0
aF21.193912029266357
aF-0.37
aF-0.75
aF-0.04
aI2398
aI-2098
aI18739
aF130.64
aF659.64
aF-32.2
aa(lp173
g2
ag3
aI0
aF21.33387303352356
aF-0.63
aF-0.53
aF0.04
aI2775
aI-7358
aI17638
aF299.92
aF599.84
aF-63.48
aa(lp174
g2
ag3
aI0
aF21.446507930755615
aF-0.83
aF-0.28
aF0.11
aI2864
aI314
aI16406
aF424.12
aF489.44
aF-110.4
aa(lp175
g2
ag3
aI0
aF21.560018062591553
aF-0.95
aF-0.04
aF0.15
aI1394
aI-1236
aI12779
aF497.72
aF360.64
aF-108.56
aa(lp176
g2
ag3
aI0
aF21.733289003372192
aF-1.08
aF0.12
aF0.17
aI351
aI-750
aI4807
aF529.0
aF272.32
aF-125.12
aa(lp177
g2
ag3
aI0
aF21.834103107452393
aF-1.13
aF0.19
aF0.19
aI-702
aI-504
aI-7159
aF529.0
aF266.8
aF-127.88
aa(lp178
g2
ag3
aI0
aF21.95788598060608
aF-1.13
aF0.16
aF0.21
aI-1764
aI803
aI-14793
aF498.64
aF359.72
aF-124.2
aa(lp179
g2
ag3
aI0
aF22.081623077392578
aF-1.08
aF0.0
aF0.2
aI-2329
aI3121
aI-19765
aF414.0
aF502.32
aF-104.88
aa(lp180
g2
ag3
aI0
aF22.234440088272095
aF-0.9
aF-0.24
aF0.15
aI-2695
aI4785
aI-18949
aF263.12
aF620.08
aF-67.16
aa(lp181
g2
ag3
aI0
aF22.345119953155518
aF-0.66
aF-0.47
aF0.07
aI-3098
aI3828
aI-13679
aF106.72
aF667.92
aF-35.88
aa(lp182
g2
ag3
aI0
aF22.447612047195435
aF-0.44
aF-0.69
aF-0.02
aI-3547
aI3243
aI-8909
aF-4.6
aF667.0
aF-9.2
aa(lp183
g2
ag3
aI0
aF22.56754207611084
aF-0.24
aF-0.84
aF-0.14
aI-3315
aI828
aI-5689
aF-80.04
aF647.68
aF22.08
aa(lp184
g2
ag3
aI0
aF22.733829021453857
aF-0.12
aF-0.91
aF-0.2
aI-825
aI-590
aI-344
aF-99.36
aF643.08
aF28.52
aa(lp185
g2
ag3
aI0
aF22.83317494392395
aF-0.12
aF-0.91
aF-0.22
aI829
aI-3501
aI5685
aF-91.08
aF637.56
aF36.8
aa(lp186
g2
ag3
aI0
aF22.933207988739014
aF-0.21
aF-0.91
aF-0.2
aI2007
aI-2872
aI8758
aF-23.92
aF653.2
aF32.2
aa(lp187
g2
ag3
aI0
aF23.084017038345337
aF-0.34
aF-0.85
aF-0.16
aI2310
aI-5094
aI11199
aF76.36
aF661.48
aF14.72
aa(lp188
g2
ag3
aI0
aF23.233908891677856
aF-0.48
aF-0.75
aF-0.08
aI2799
aI-3592
aI12588
aF195.04
aF643.08
aF-8.28
aa(lp189
g2
ag3
aI0
aF23.334439992904663
aF-0.66
aF-0.59
aF0.0
aI2002
aI-3485
aI13060
aF306.36
aF592.48
aF-39.56
aa(lp190
g2
ag3
aI0
aF23.43329906463623
aF-0.81
aF-0.41
aF0.08
aI1312
aI-2815
aI11872
aF402.04
aF514.28
aF-69.0
aa(lp191
g2
ag3
aI0
aF23.56270694732666
aF-0.94
aF-0.24
aF0.14
aI445
aI-1228
aI7769
aF461.84
aF437.92
aF-88.32
aa(lp192
g2
ag3
aI0
aF23.734368085861206
aF-0.98
aF-0.11
aF0.17
aI-607
aI741
aI4452
aF492.2
aF387.32
aF-87.4
aa(lp193
g2
ag3
aI0
aF23.833357095718384
aF-0.99
aF-0.03
aF0.17
aI-827
aI250
aI1879
aF509.68
aF361.56
aF-83.72
aa(lp194
g2
ag3
aI0
aF23.933507919311523
aF-0.98
aF0.02
aF0.16
aI-716
aI959
aI36
aF508.76
aF355.12
aF-69.92
aa(lp195
g2
ag3
aI0
aF24.036550998687744
aF-0.96
aF0.04
aF0.15
aI-412
aI-37
aI-325
aF507.84
aF357.88
aF-69.92
aa(lp196
g2
ag3
aI0
aF24.180264949798584
aF-0.95
aF0.07
aF0.16
aI-658
aI593
aI525
aF509.68
aF358.8
aF-66.24
aa(lp197
g2
ag3
aI0
aF24.333933115005493
aF-0.95
aF0.07
aF0.15
aI-592
aI146
aI574
aF507.84
aF355.12
aF-61.64
aa(lp198
g2
ag3
aI0
aF24.43353796005249
aF-0.96
aF0.08
aF0.14
aI-215
aI-5
aI-54
aF510.6
aF350.52
aF-60.72
aa(lp199
g2
ag3
aI0
aF24.533654928207397
aF-0.95
aF0.08
aF0.14
aI131
aI171
aI-317
aF509.68
aF353.28
aF-58.88
aa(lp200
g2
ag3
aI0
aF24.64258599281311
aF-0.95
aF0.08
aF0.14
aI338
aI-69
aI-79
aF506.92
aF357.88
aF-58.88
aa(lp201
g2
ag3
aI0
aF24.755223035812378
aF-0.95
aF0.08
aF0.14
aI240
aI-87
aI25
aF506.92
aF355.12
aF-61.64
aa(lp202
g2
ag3
aI0
aF24.9342839717865
aF-0.95
aF0.07
aF0.15
aI-15
aI-38
aI45
aF508.76
aF356.96
aF-62.56
aa(lp203
g2
ag3
aI0
aF25.034332036972046
aF-0.95
aF0.07
aF0.14
aI-188
aI284
aI100
aF509.68
aF356.04
aF-60.72
aa.