(lp1
(lp2
S'Dan'
p3
aS'tricep'
p4
aI0
aF0.00021004676818847656
aF-0.22
aF0.95999999999999996
aF-0.040000000000000001
aI-1184
aI-626
aI91
aF149.96000000000001
aF-285.19999999999999
aF177.56
aa(lp5
g3
ag4
aI0
aF0.23881220817565918
aF-0.20000000000000001
aF0.93000000000000005
aF-0.02
aI1651
aI-86
aI-157
aF155.47999999999999
aF-285.19999999999999
aF170.19999999999999
aa(lp6
g3
ag4
aI0
aF0.37621116638183594
aF-0.20000000000000001
aF0.95999999999999996
aF-0.02
aI342
aI-270
aI-650
aF163.75999999999999
aF-280.60000000000002
aF175.72
aa(lp7
g3
ag4
aI0
aF0.53609204292297363
aF-0.20999999999999999
aF0.93999999999999995
aF-0.02
aI267
aI-127
aI-491
aF167.44
aF-278.75999999999999
aF180.31999999999999
aa(lp8
g3
ag4
aI0
aF0.63648414611816406
aF-0.22
aF0.96999999999999997
aF-0.029999999999999999
aI510
aI-469
aI-574
aF173.88
aF-274.16000000000003
aF182.16
aa(lp9
g3
ag4
aI0
aF0.73603606224060059
aF-0.28999999999999998
aF0.96999999999999997
aF-0.059999999999999998
aI779
aI-1170
aI-1832
aF184
aF-266.80000000000001
aF187.68000000000001
aa(lp10
g3
ag4
aI0
aF0.8526761531829834
aF-0.28000000000000003
aF0.93999999999999995
aF-0.059999999999999998
aI992
aI-228
aI-3099
aF207.91999999999999
aF-254.84
aF191.36000000000001
aa(lp11
g3
ag4
aI0
aF0.99251103401184082
aF-0.19
aF0.93000000000000005
aF-0.059999999999999998
aI-173
aI402
aI1680
aF217.12
aF-250.24000000000001
aF192.28
aa(lp12
g3
ag4
aI0
aF1.1359851360321045
aF-0.14000000000000001
aF1.01
aF-0.080000000000000002
aI-612
aI3408
aI10121
aF197.80000000000001
aF-258.51999999999998
aF192.28
aa(lp13
g3
ag4
aI0
aF1.237598180770874
aF0.02
aF1.01
aF-0.050000000000000003
aI-838
aI2997
aI15227
aF99.359999999999999
aF-278.75999999999999
aF194.12
aa(lp14
g3
ag4
aI0
aF1.3687660694122314
aF0.28000000000000003
aF0.96999999999999997
aF-0.029999999999999999
aI-3128
aI1751
aI19451
aF-27.600000000000001
aF-275.07999999999998
aF186.75999999999999
aa(lp15
g3
ag4
aI0
aF1.5347142219543457
aF0.5
aF0.97999999999999998
aF0.02
aI-4986
aI6243
aI21498
aF-178.47999999999999
aF-218.96000000000001
aF158.24000000000001
aa(lp16
g3
ag4
aI0
aF1.635944128036499
aF0.72999999999999998
aF0.91000000000000003
aF0.089999999999999997
aI-5276
aI1049
aI19115
aF-319.24000000000001
aF-109.48
aF94.760000000000005
aa(lp17
g3
ag4
aI0
aF1.7461621761322021
aF0.83999999999999997
aF0.56000000000000005
aF0.16
aI-4786
aI-1181
aI16731
aF-381.80000000000001
aF27.600000000000001
aF69.920000000000002
aa(lp18
g3
ag4
aI0
aF1.8687520027160645
aF0.92000000000000004
aF0.31
aF0.11
aI-5308
aI181
aI12990
aF-400.19999999999999
aF151.80000000000001
aF69.920000000000002
aa(lp19
g3
ag4
aI0
aF2.0362370014190674
aF0.76000000000000001
aF0.070000000000000007
aF0.11
aI2340
aI-4531
aI-3581
aF-399.27999999999997
aF195.96000000000001
aF62.560000000000002
aa(lp20
g3
ag4
aI0
aF2.1364991664886475
aF0.91000000000000003
aF-0.02
aF0.10000000000000001
aI4215
aI1542
aI-11655
aF-394.68000000000001
aF136.16
aF78.200000000000003
aa(lp21
g3
ag4
aI0
aF2.2363600730895996
aF0.93000000000000005
aF0.20000000000000001
aF0.11
aI6452
aI-4241
aI-15306
aF-375.36000000000001
aF27.600000000000001
aF97.519999999999996
aa(lp22
g3
ag4
aI0
aF2.3399391174316406
aF0.84999999999999998
aF0.45000000000000001
aF0.14000000000000001
aI6815
aI-2257
aI-18375
aF-305.44
aF-89.239999999999995
aF132.47999999999999
aa(lp23
g3
ag4
aI0
aF2.4811611175537109
aF0.78000000000000003
aF0.66000000000000003
aF0.070000000000000007
aI5405
aI-3794
aI-19240
aF-260.36000000000001
aF-145.36000000000001
aF152.72
aa(lp24
g3
ag4
aI0
aF2.6365129947662354
aF0.56999999999999995
aF0.85999999999999999
aF-0.029999999999999999
aI3211
aI-4061
aI-19735
aF-125.12
aF-220.80000000000001
aF198.72
aa(lp25
g3
ag4
aI0
aF2.7364029884338379
aF0.37
aF0.98999999999999999
aF-0.11
aI2329
aI-1183
aI-16041
aF20.239999999999998
aF-247.47999999999999
aF223.56
aa(lp26
g3
ag4
aI0
aF2.8687481880187988
aF0.13
aF0.98999999999999999
aF-0.14000000000000001
aI1982
aI-2917
aI-10861
aF140.75999999999999
aF-232.75999999999999
aF236.44
aa(lp27
g3
ag4
aI0
aF3.0355880260467529
aF-0.050000000000000003
aF0.91000000000000003
aF-0.16
aI1078
aI-3672
aI-1954
aF228.16
aF-201.47999999999999
aF235.52000000000001
aa(lp28
g3
ag4
aI0
aF3.135174036026001
aF-0.23999999999999999
aF0.87
aF-0.17000000000000001
aI683
aI1585
aI1153
aF240.12
aF-188.59999999999999
aF237.36000000000001
aa(lp29
g3
ag4
aI0
aF3.2361431121826172
aF-0.26000000000000001
aF0.84999999999999998
aF-0.17000000000000001
aI-1130
aI-732
aI44
aF230.91999999999999
aF-189.52000000000001
aF237.36000000000001
aa(lp30
g3
ag4
aI0
aF3.3499131202697754
aF-0.23000000000000001
aF0.89000000000000001
aF-0.17999999999999999
aI-1276
aI844
aI5199
aF222.63999999999999
aF-202.40000000000001
aF232.75999999999999
aa(lp31
g3
ag4
aI0
aF3.4988009929656982
aF-0.19
aF1.03
aF-0.17000000000000001
aI-2125
aI-1099
aI13451
aF158.24000000000001
aF-238.28
aF226.31999999999999
aa(lp32
g3
ag4
aI0
aF3.6365170478820801
aF0.070000000000000007
aF1.02
aF-0.13
aI-3544
aI7871
aI19233
aF30.359999999999999
aF-266.80000000000001
aF207
aa(lp33
g3
ag4
aI0
aF3.7364861965179443
aF0.35999999999999999
aF1.01
aF-0.059999999999999998
aI-5956
aI6908
aI23964
aF-161
aF-233.68000000000001
aF158.24000000000001
aa(lp34
g3
ag4
aI0
aF3.87642502784729
aF0.65000000000000002
aF0.83999999999999997
aF0.029999999999999999
aI-7795
aI6219
aI22471
aF-323.83999999999997
aF-106.72
aF83.719999999999999
aa(lp35
g3
ag4
aI0
aF4.0364480018615723
aF0.88
aF0.56000000000000005
aF0.080000000000000002
aI-7944
aI1441
aI19743
aF-395.60000000000002
aF53.359999999999999
aF40.479999999999997
aa(lp36
g3
ag4
aI0
aF4.1355960369110107
aF0.79000000000000004
aF0.25
aF0.14999999999999999
aI-7192
aI-1384
aI13905
aF-401.12
aF196.88
aF59.799999999999997
aa(lp37
g3
ag4
aI0
aF4.2363681793212891
aF0.69999999999999996
aF-0.01
aF0.089999999999999997
aI-527
aI-5358
aI-1634
aF-401.12
aF222.63999999999999
aF51.520000000000003
aa(lp38
g3
ag4
aI0
aF4.3475561141967773
aF0.71999999999999997
aF-0.01
aF0.10000000000000001
aI3729
aI2023
aI-10683
aF-391
aF192.28
aF82.799999999999997
aa(lp39
g3
ag4
aI0
aF4.4737370014190674
aF0.87
aF0.14000000000000001
aF0.16
aI6326
aI-2007
aI-16849
aF-396.51999999999998
aF94.760000000000005
aF67.159999999999997
aa(lp40
g3
ag4
aI0
aF4.6363160610198975
aF0.96999999999999997
aF0.44
aF0.11
aI6400
aI878
aI-17403
aF-352.36000000000001
aF-40.479999999999997
aF98.439999999999998
aa(lp41
g3
ag4
aI0
aF4.7364161014556885
aF0.80000000000000004
aF0.72999999999999998
aF0.16
aI6974
aI-3811
aI-18898
aF-268.63999999999999
aF-155.47999999999999
aF125.12
aa(lp42
g3
ag4
aI0
aF4.8476331233978271
aF0.55000000000000004
aF0.91000000000000003
aF0.080000000000000002
aI4891
aI-3935
aI-19045
aF-131.56
aF-233.68000000000001
aF181.24000000000001
aa(lp43
g3
ag4
aI0
aF4.9649560451507568
aF0.37
aF1
aF-0.040000000000000001
aI3752
aI-2204
aI-16904
aF-0.92000000000000004
aF-254.84
aF218.96000000000001
aa(lp44
g3
ag4
aI0
aF5.1136031150817871
aF0.14000000000000001
aF1
aF-0.11
aI2582
aI-6065
aI-13072
aF138
aF-233.68000000000001
aF237.36000000000001
aa(lp45
g3
ag4
aI0
aF5.2375421524047852
aF0.01
aF0.92000000000000004
aF-0.14999999999999999
aI711
aI-2822
aI-5543
aF229.08000000000001
aF-197.80000000000001
aF236.44
aa(lp46
g3
ag4
aI0
aF5.3613781929016113
aF-0.17999999999999999
aF0.87
aF-0.17999999999999999
aI1318
aI839
aI261
aF250.24000000000001
aF-184
aF237.36000000000001
aa(lp47
g3
ag4
aI0
aF5.4799530506134033
aF-0.29999999999999999
aF0.87
aF-0.17000000000000001
aI-375
aI420
aI-8
aF247.47999999999999
aF-180.31999999999999
aF241.96000000000001
aa(lp48
g3
ag4
aI0
aF5.6362590789794922
aF-0.28999999999999998
aF0.90000000000000002
aF-0.19
aI-862
aI289
aI6095
aF243.80000000000001
aF-186.75999999999999
aF241.03999999999999
aa(lp49
g3
ag4
aI0
aF5.7363190650939941
aF-0.17999999999999999
aF0.92000000000000004
aF-0.17000000000000001
aI-2492
aI2792
aI13089
aF199.63999999999999
aF-216.19999999999999
aF238.28
aa(lp50
g3
ag4
aI0
aF5.8436682224273682
aF0.070000000000000007
aF0.96999999999999997
aF-0.19
aI-3819
aI7422
aI18533
aF89.239999999999995
aF-251.16
aF230.91999999999999
aa(lp51
g3
ag4
aI0
aF5.9598112106323242
aF0.34999999999999998
aF1
aF-0.13
aI-6993
aI5542
aI22666
aF-87.400000000000006
aF-250.24000000000001
aF195.03999999999999
aa(lp52
g3
ag4
aI0
aF6.0823750495910645
aF0.57999999999999996
aF0.96999999999999997
aF-0.02
aI-8290
aI4777
aI21670
aF-253.91999999999999
aF-172.03999999999999
aF128.80000000000001
aa(lp53
g3
ag4
aI0
aF6.2364120483398438
aF0.76000000000000001
aF0.83999999999999997
aF0.10000000000000001
aI-6543
aI527
aI17311
aF-361.56
aF-38.640000000000001
aF69
aa(lp54
g3
ag4
aI0
aF6.3358840942382812
aF0.80000000000000004
aF0.41999999999999998
aF0.19
aI-7661
aI887
aI14618
aF-405.72000000000003
aF88.319999999999993
aF41.399999999999999
aa(lp55
g3
ag4
aI0
aF6.475114107131958
aF0.79000000000000004
aF0.19
aF0.14999999999999999
aI-4846
aI-3320
aI9369
aF-407.56
aF197.80000000000001
aF45.079999999999998
aa(lp56
g3
ag4
aI0
aF6.6364521980285645
aF0.67000000000000004
aF-0.050000000000000003
aF0.17999999999999999
aI3610
aI-4664
aI-6117
aF-398.36000000000001
aF209.75999999999999
aF68.079999999999998
aa(lp57
g3
ag4
aI0
aF6.7363691329956055
aF0.73999999999999999
aF0.029999999999999999
aF0.14999999999999999
aI6398
aI1112
aI-14167
aF-394.68000000000001
aF128.80000000000001
aF79.120000000000005
aa(lp58
g3
ag4
aI0
aF6.8362560272216797
aF0.98999999999999999
aF0.26000000000000001
aF0.13
aI7183
aI327
aI-18435
aF-368
aF-1.8400000000000001
aF84.640000000000001
aa(lp59
g3
ag4
aI0
aF6.9561071395874023
aF1.02
aF0.48999999999999999
aF0.080000000000000002
aI7111
aI-2310
aI-20504
aF-333.95999999999998
aF-73.599999999999994
aF104.88
aa(lp60
g3
ag4
aI0
aF7.0823872089385986
aF0.81999999999999995
aF0.71999999999999997
aF0.059999999999999998
aI5859
aI-3237
aI-20980
aF-217.12
aF-184
aF160.08000000000001
aa(lp61
g3
ag4
aI0
aF7.2362902164459229
aF0.57999999999999996
aF0.92000000000000004
aF-0.040000000000000001
aI4247
aI-1999
aI-18494
aF-67.159999999999997
aF-249.31999999999999
aF200.56
aa(lp62
g3
ag4
aI0
aF7.3362560272216797
aF0.28000000000000003
aF0.97999999999999998
aF-0.12
aI2893
aI-4349
aI-14102
aF75.439999999999998
aF-248.40000000000001
aF230.91999999999999
aa(lp63
g3
ag4
aI0
aF7.4476220607757568
aF0.080000000000000002
aF0.91000000000000003
aF-0.14999999999999999
aI1233
aI-3393
aI-8076
aF188.59999999999999
aF-216.19999999999999
aF240.12
aa(lp64
g3
ag4
aI0
aF7.5875611305236816
aF-0.13
aF0.88
aF-0.14999999999999999
aI1096
aI-903
aI1647
aF231.84
aF-195.96000000000001
aF237.36000000000001
aa(lp65
g3
ag4
aI0
aF7.7362890243530273
aF-0.28000000000000003
aF0.85999999999999999
aF-0.16
aI-740
aI-212
aI-728
aF231.84
aF-197.80000000000001
aF240.12
aa(lp66
g3
ag4
aI0
aF7.8399832248687744
aF-0.20000000000000001
aF0.90000000000000002
aF-0.16
aI-1915
aI1435
aI5090
aF229.08000000000001
aF-205.16
aF232.75999999999999
aa(lp67
g3
ag4
aI0
aF7.9551501274108887
aF-0.089999999999999997
aF0.97999999999999998
aF-0.14999999999999999
aI-3121
aI1529
aI16795
aF149.96000000000001
aF-245.63999999999999
aF225.40000000000001
aa(lp68
g3
ag4
aI0
aF8.0789182186126709
aF0.070000000000000007
aF1.0600000000000001
aF-0.13
aI-4665
aI8172
aI21506
aF-3.6800000000000002
aF-273.24000000000001
aF201.47999999999999
aa(lp69
g3
ag4
aI0
aF8.2353160381317139
aF0.38
aF1.05
aF-0.040000000000000001
aI-6281
aI4613
aI21455
aF-194.12
aF-221.72
aF145.36000000000001
aa(lp70
g3
ag4
aI0
aF8.3353691101074219
aF0.60999999999999999
aF0.93000000000000005
aF0.070000000000000007
aI-7377
aI2283
aI19882
aF-322
aF-108.56
aF92
aa(lp71
g3
ag4
aI0
aF8.4423491954803467
aF0.81999999999999995
aF0.68999999999999995
aF0.17000000000000001
aI-7701
aI-722
aI19197
aF-391
aF39.560000000000002
aF56.119999999999997
aa(lp72
g3
ag4
aI0
aF8.5862572193145752
aF0.88
aF0.31
aF0.20999999999999999
aI-7912
aI3630
aI14806
aF-402.95999999999998
aF116.84
aF55.200000000000003
aa(lp73
g3
ag4
aI0
aF8.735626220703125
aF0.71999999999999997
aF0.02
aF0.16
aI1307
aI-3601
aI-1371
aF-405.72000000000003
aF210.68000000000001
aF44.159999999999997
aa(lp74
g3
ag4
aI0
aF8.8364291191101074
aF0.68000000000000005
aF-0.01
aF0.16
aI4693
aI1676
aI-11568
aF-402.95999999999998
aF184
aF67.159999999999997
aa(lp75
g3
ag4
aI0
aF8.9361081123352051
aF0.80000000000000004
aF0.17999999999999999
aF0.20000000000000001
aI7431
aI2360
aI-18795
aF-396.51999999999998
aF72.680000000000007
aF58.880000000000003
aa(lp76
g3
ag4
aI0
aF9.0760290622711182
aF0.83999999999999997
aF0.45000000000000001
aF0.20000000000000001
aI9009
aI-43
aI-22156
aF-342.24000000000001
aF-80.040000000000006
aF79.120000000000005
aa(lp77
g3
ag4
aI0
aF9.2363941669464111
aF0.81000000000000005
aF0.73999999999999999
aF0.14000000000000001
aI7484
aI-4372
aI-20227
aF-225.40000000000001
aF-203.31999999999999
aF127.88
aa(lp78
g3
ag4
aI0
aF9.3362431526184082
aF0.56999999999999995
aF0.93999999999999995
aF0.050000000000000003
aI4602
aI-4649
aI-17629
aF-69.920000000000002
aF-264.04000000000002
aF186.75999999999999
aa(lp79
g3
ag4
aI0
aF9.4349141120910645
aF0.27000000000000002
aF1
aF-0.050000000000000003
aI3973
aI-1527
aI-15301
aF68.079999999999998
aF-262.19999999999999
aF213.44
aa(lp80
g3
ag4
aI0
aF9.5798141956329346
aF0.10000000000000001
aF0.96999999999999997
aF-0.089999999999999997
aI1589
aI-4649
aI-10313
aF180.31999999999999
aF-230
aF228.16
aa(lp81
g3
ag4
aI0
aF9.7363030910491943
aF-0.14000000000000001
aF0.93000000000000005
aF-0.14000000000000001
aI850
aI-965
aI-1690
aF234.59999999999999
aF-207.91999999999999
aF228.16
aa(lp82
g3
ag4
aI0
aF9.8362941741943359
aF-0.28000000000000003
aF0.87
aF-0.14999999999999999
aI670
aI-327
aI-1137
aF241.96000000000001
aF-198.72
aF230.91999999999999
aa(lp83
g3
ag4
aI0
aF9.9551811218261719
aF-0.22
aF0.87
aF-0.14000000000000001
aI-663
aI2523
aI5870
aF219.88
aF-205.16
aF237.36000000000001
aa(lp84
g3
ag4
aI0
aF10.070183992385864
aF-0.11
aF0.93000000000000005
aF-0.16
aI-4685
aI1552
aI15607
aF181.24000000000001
aF-220.80000000000001
aF236.44
aa(lp85
g3
ag4
aI0
aF10.236290216445923
aF0.14999999999999999
aF1.02
aF-0.11
aI-6003
aI5569
aI22133
aF45.079999999999998
aF-267.72000000000003
aF208.84
aa(lp86
g3
ag4
aI0
aF10.33631420135498
aF0.39000000000000001
aF1.0700000000000001
aF-0.01
aI-7655
aI5037
aI24151
aF-142.59999999999999
aF-245.63999999999999
aF157.31999999999999
aa(lp87
g3
ag4
aI0
aF10.441102027893066
aF0.69999999999999996
aF0.80000000000000004
aF0.10000000000000001
aI-8556
aI2699
aI21382
aF-298.07999999999998
aF-138
aF90.159999999999997
aa(lp88
g3
ag4
aI0
aF10.555027008056641
aF0.80000000000000004
aF0.57999999999999996
aF0.14000000000000001
aI-8636
aI-671
aI20675
aF-385.48000000000002
aF13.800000000000001
aF53.359999999999999
aa(lp89
g3
ag4
aI0
aF10.677502155303955
aF0.77000000000000002
aF0.26000000000000001
aF0.23000000000000001
aI-6035
aI-14
aI12524
aF-403.88
aF167.44
aF46.920000000000002
aa(lp90
g3
ag4
aI0
aF10.836270093917847
aF0.69999999999999996
aF0.029999999999999999
aF0.12
aI455
aI-4394
aI-2009
aF-400.19999999999999
aF219.88
aF49.68
aa(lp91
g3
ag4
aI0
aF10.936325073242188
aF0.71999999999999997
aF-0.040000000000000001
aF0.16
aI4631
aI3630
aI-12466
aF-402.95999999999998
aF160.08000000000001
aF65.319999999999993
aa(lp92
g3
ag4
aI0
aF11.04379415512085
aF0.87
aF0.20999999999999999
aF0.20999999999999999
aI6412
aI-1596
aI-15797
aF-391.92000000000002
aF39.560000000000002
aF55.200000000000003
aa(lp93
g3
ag4
aI0
aF11.168917179107666
aF0.96999999999999997
aF0.41999999999999998
aF0.23999999999999999
aI6939
aI145
aI-17120
aF-334.88
aF-92.920000000000002
aF81.879999999999995
aa(lp94
g3
ag4
aI0
aF11.336323022842407
aF0.88
aF0.68000000000000005
aF0.17000000000000001
aI5981
aI-4910
aI-15985
aF-290.72000000000003
aF-149.03999999999999
aF103.95999999999999
aa(lp95
g3
ag4
aI0
aF11.435781002044678
aF0.67000000000000004
aF0.83999999999999997
aF0.080000000000000002
aI4593
aI-2737
aI-16083
aF-180.31999999999999
aF-223.56
aF157.31999999999999
aa(lp96
g3
ag4
aI0
aF11.558850049972534
aF0.46000000000000002
aF0.94999999999999996
aF-0.01
aI3757
aI-1529
aI-14840
aF-55.200000000000003
aF-260.36000000000001
aF194.12
aa(lp97
g3
ag4
aI0
aF11.673789024353027
aF0.23999999999999999
aF0.97999999999999998
aF-0.059999999999999998
aI3109
aI-1143
aI-13338
aF66.239999999999995
aF-256.68000000000001
aF217.12
aa(lp98
g3
ag4
aI0
aF11.836180210113525
aF0.050000000000000003
aF0.95999999999999996
aF-0.13
aI379
aI-3440
aI-7832
aF163.75999999999999
aF-229.08000000000001
aF236.44
aa(lp99
g3
ag4
aI0
aF11.939983129501343
aF-0.13
aF0.91000000000000003
aF-0.16
aI501
aI-1361
aI-1292
aF218.96000000000001
aF-212.52000000000001
aF228.16
aa(lp100
g3
ag4
aI0
aF12.05997109413147
aF-0.28999999999999998
aF0.90000000000000002
aF-0.17000000000000001
aI1097
aI-155
aI-184
aF228.16
aF-204.24000000000001
aF231.84
aa(lp101
g3
ag4
aI0
aF12.197410106658936
aF-0.26000000000000001
aF0.88
aF-0.16
aI385
aI2807
aI717
aF222.63999999999999
aF-199.63999999999999
aF240.12
aa(lp102
g3
ag4
aI0
aF12.335986137390137
aF-0.23999999999999999
aF0.90000000000000002
aF-0.16
aI-1989
aI-1066
aI5782
aF199.63999999999999
aF-209.75999999999999
aF241.96000000000001
aa(lp103
g3
ag4
aI0
aF12.438579082489014
aF-0.13
aF0.93999999999999995
aF-0.17000000000000001
aI-3471
aI4002
aI12728
aF136.16
aF-245.63999999999999
aF228.16
aa(lp104
g3
ag4
aI0
aF12.553914070129395
aF0.040000000000000001
aF1.01
aF-0.17999999999999999
aI-2671
aI3664
aI16428
aF11.960000000000001
aF-262.19999999999999
aF208.84
aa(lp105
g3
ag4
aI0
aF12.671255111694336
aF0.28000000000000003
aF1.01
aF-0.11
aI-4830
aI5681
aI19485
aF-144.44
aF-236.44
aF172.96000000000001
aa(lp106
g3
ag4
aI0
aF12.836277008056641
aF0.51000000000000001
aF0.93000000000000005
aF0.01
aI-6988
aI4582
aI18764
aF-281.51999999999998
aF-149.96000000000001
aF112.23999999999999
aa(lp107
g3
ag4
aI0
aF12.936174154281616
aF0.71999999999999997
aF0.71999999999999997
aF0.13
aI-7760
aI2875
aI16732
aF-368
aF-30.359999999999999
aF58.880000000000003
aa(lp108
g3
ag4
aI0
aF13.050345182418823
aF0.87
aF0.56999999999999995
aF0.12
aI-8287
aI677
aI16165
aF-392.83999999999997
aF30.359999999999999
aF47.840000000000003
aa(lp109
g3
ag4
aI0
aF13.165018081665039
aF0.88
aF0.26000000000000001
aF0.17999999999999999
aI-5012
aI-2075
aI9291
aF-413.07999999999998
aF151.80000000000001
aF22.079999999999998
aa(lp110
g3
ag4
aI0
aF13.336107015609741
aF0.71999999999999997
aF0.080000000000000002
aF0.19
aI2052
aI-2057
aI-3654
aF-404.80000000000001
aF194.12
aF43.240000000000002
aa(lp111
g3
ag4
aI0
aF13.435742139816284
aF0.77000000000000002
aF0.050000000000000003
aF0.22
aI4653
aI1925
aI-11715
aF-402.95999999999998
aF149.03999999999999
aF55.200000000000003
aa(lp112
g3
ag4
aI0
aF13.534770011901855
aF0.79000000000000004
aF0.34000000000000002
aF0.14999999999999999
aI8374
aI-3761
aI-17161
aF-389.16000000000003
aF31.280000000000001
aF51.520000000000003
aa(lp113
g3
ag4
aI0
aF13.666222095489502
aF0.81000000000000005
aF0.60999999999999999
aF0.17000000000000001
aI8387
aI-1113
aI-20099
aF-323.83999999999997
aF-104.88
aF92
aa(lp114
g3
ag4
aI0
aF13.836177110671997
aF0.76000000000000001
aF0.81000000000000005
aF0.080000000000000002
aI8329
aI-3187
aI-20102
aF-204.24000000000001
aF-211.59999999999999
aF143.52000000000001
aa(lp115
g3
ag4
aI0
aF13.936111211776733
aF0.58999999999999997
aF0.94999999999999996
aF0
aI5067
aI-3759
aI-16872
aF-58.880000000000003
aF-259.44
aF196.88
aa(lp116
g3
ag4
aI0
aF14.036015033721924
aF0.27000000000000002
aF1
aF-0.059999999999999998
aI4331
aI-7440
aI-12520
aF80.959999999999994
aF-253
aF231.84
aa(lp117
g3
ag4
aI0
aF14.167348146438599
aF0.14000000000000001
aF0.94999999999999996
aF-0.16
aI1108
aI-2454
aI-9531
aF187.68000000000001
aF-212.52000000000001
aF242.88
aa(lp118
g3
ag4
aI0
aF14.336272001266479
aF-0.080000000000000002
aF0.89000000000000001
aF-0.16
aI1814
aI-1903
aI300
aF221.72
aF-194.12
aF247.47999999999999
aa(lp119
g3
ag4
aI0
aF14.436075210571289
aF-0.23999999999999999
aF0.83999999999999997
aF-0.17999999999999999
aI-38
aI920
aI328
aF222.63999999999999
aF-188.59999999999999
aF248.40000000000001
aa(lp120
g3
ag4
aI0
aF14.552510023117065
aF-0.20000000000000001
aF0.87
aF-0.20000000000000001
aI-1419
aI1457
aI3560
aF212.52000000000001
aF-194.12
aF250.24000000000001
aa(lp121
g3
ag4
aI0
aF14.667651176452637
aF-0.20000000000000001
aF0.93000000000000005
aF-0.23000000000000001
aI-1591
aI3884
aI11455
aF174.80000000000001
aF-218.96000000000001
aF246.56
aa(lp122
g3
ag4
aI0
aF14.83625316619873
aF0.10000000000000001
aF0.93999999999999995
aF-0.20000000000000001
aI-5078
aI4542
aI16489
aF68.079999999999998
aF-248.40000000000001
aF231.84
aa(lp123
g3
ag4
aI0
aF14.936202049255371
aF0.37
aF0.96999999999999997
aF-0.11
aI-7358
aI6154
aI19543
aF-77.280000000000001
aF-256.68000000000001
aF193.19999999999999
aa(lp124
g3
ag4
aI0
aF15.043754100799561
aF0.48999999999999999
aF1
aF-0
aI-8098
aI1772
aI21204
aF-234.59999999999999
aF-190.44
aF131.56
aa(lp125
g3
ag4
aI0
aF15.161457061767578
aF0.75
aF0.78000000000000003
aF0.16
aI-8626
aI3498
aI17913
aF-349.60000000000002
aF-73.599999999999994
aF57.960000000000001
aa(lp126
g3
ag4
aI0
aF15.277497053146362
aF0.91000000000000003
aF0.42999999999999999
aF0.34000000000000002
aI-8001
aI357
aI15858
aF-402.95999999999998
aF65.319999999999993
aF26.68
aa(lp127
g3
ag4
aI0
aF15.436027050018311
aF0.93000000000000005
aF0.20000000000000001
aF0.32000000000000001
aI-6492
aI-2192
aI11631
aF-409.39999999999998
aF189.52000000000001
aF24.84
aa(lp128
g3
ag4
aI0
aF15.54006814956665
aF0.75
aF-0.01
aF0.25
aI1758
aI-3809
aI-2923
aF-403.88
aF223.56
aF46
aa(lp129
g3
ag4
aI0
aF15.657683134078979
aF0.80000000000000004
aF-0.01
aF0.20000000000000001
aI4515
aI2003
aI-11125
aF-405.72000000000003
aF156.40000000000001
aF51.520000000000003
aa(lp130
g3
ag4
aI0
aF15.773757219314575
aF0.93999999999999995
aF0.23999999999999999
aF0.13
aI7026
aI2345
aI-16855
aF-386.39999999999998
aF30.359999999999999
aF56.119999999999997
aa(lp131
g3
ag4
aI0
aF15.936194181442261
aF1.02
aF0.51000000000000001
aF0.22
aI8786
aI-2985
aI-21193
aF-363.39999999999998
aF-44.159999999999997
aF66.239999999999995
aa(lp132
g3
ag4
aI0
aF16.039995193481445
aF0.93000000000000005
aF0.67000000000000004
aF0.17000000000000001
aI5591
aI-2614
aI-18200
aF-264.04000000000002
aF-171.12
aF114.08
aa(lp133
g3
ag4
aI0
aF16.162671089172363
aF0.69999999999999996
aF0.88
aF0.050000000000000003
aI4869
aI-2986
aI-16241
aF-132.47999999999999
aF-250.24000000000001
aF162.84
aa(lp134
g3
ag4
aI0
aF16.336144208908081
aF0.40000000000000002
aF0.98999999999999999
aF-0.029999999999999999
aI3259
aI-3843
aI-14855
aF1.8400000000000001
aF-267.72000000000003
aF200.56
aa(lp135
g3
ag4
aI0
aF16.435739040374756
aF0.16
aF0.97999999999999998
aF-0.089999999999999997
aI4082
aI-1182
aI-13614
aF128.80000000000001
aF-247.47999999999999
aF226.31999999999999
aa(lp136
g3
ag4
aI0
aF16.535705089569092
aF0.059999999999999998
aF0.92000000000000004
aF-0.13
aI842
aI-1944
aI-4079
aF215.28
aF-204.24000000000001
aF240.12
aa(lp137
g3
ag4
aI0
aF16.644026041030884
aF-0.16
aF0.90000000000000002
aF-0.14999999999999999
aI-209
aI2517
aI3978
aF218.03999999999999
aF-201.47999999999999
aF241.96000000000001
aa(lp138
g3
ag4
aI0
aF16.797537088394165
aF-0.14000000000000001
aF0.90000000000000002
aF-0.14999999999999999
aI-2031
aI2820
aI6374
aF171.12
aF-216.19999999999999
aF243.80000000000001
aa(lp139
g3
ag4
aI0
aF16.93482518196106
aF0.01
aF0.94999999999999996
aF-0.17000000000000001
aI-5025
aI5968
aI15996
aF82.799999999999997
aF-250.24000000000001
aF232.75999999999999
aa(lp140
g3
ag4
aI0
aF17.03744912147522
aF0.23000000000000001
aF1.0600000000000001
aF-0.14000000000000001
aI-7243
aI5337
aI20934
aF-83.719999999999999
aF-261.27999999999997
aF182.16
aa(lp141
g3
ag4
aI0
aF17.15025520324707
aF0.45000000000000001
aF1.04
aF-0.01
aI-8515
aI5114
aI21072
aF-243.80000000000001
aF-187.68000000000001
aF118.68000000000001
aa(lp142
g3
ag4
aI0
aF17.292540073394775
aF0.68000000000000005
aF0.87
aF0.13
aI-8956
aI2722
aI18580
aF-356.95999999999998
aF-234.59999999999999
aF58.880000000000003
aa(lp143
g3
ag4
aI0
aF17.435935020446777
aF0.87
aF0.62
aF0.22
aI-8918
aI-1447
aI17066
aF-402.95999999999998
aF67.159999999999997
aF31.280000000000001
aa(lp144
g3
ag4
aI0
aF17.536007165908813
aF0.82999999999999996
aF0.20000000000000001
aF0.27000000000000002
aI-8245
aI351
aI14365
aF-408.48000000000002
aF138
aF30.359999999999999
aa(lp145
g3
ag4
aI0
aF17.645004034042358
aF0.71999999999999997
aF-0.089999999999999997
aF0.25
aI-987
aI-4197
aI2218
aF-401.12
aF243.80000000000001
aF38.640000000000001
aa(lp146
g3
ag4
aI0
aF17.766537189483643
aF0.68000000000000005
aF-0.17999999999999999
aF0.17000000000000001
aI3214
aI359
aI-8956
aF-393.75999999999999
aF246.56
aF64.400000000000006
aa(lp147
g3
ag4
aI0
aF17.936002016067505
aF0.84999999999999998
aF0
aF0.17000000000000001
aI6428
aI940
aI-15186
aF-403.88
aF149.03999999999999
aF56.119999999999997
aa(lp148
g3
ag4
aI0
aF18.035945177078247
aF0.96999999999999997
aF0.23999999999999999
aF0.14999999999999999
aI8523
aI361
aI-19181
aF-386.39999999999998
aF4.5999999999999996
aF53.359999999999999
aa(lp149
g3
ag4
aI0
aF18.135883092880249
aF1.02
aF0.55000000000000004
aF0.17000000000000001
aI8474
aI-4280
aI-19870
aF-306.36000000000001
aF-136.16
aF87.400000000000006
aa(lp150
g3
ag4
aI0
aF18.267617225646973
aF0.81000000000000005
aF0.78000000000000003
aF0.070000000000000007
aI5469
aI-4887
aI-18313
aF-171.12
aF-230
aF156.40000000000001
aa(lp151
g3
ag4
aI0
aF18.435476064682007
aF0.53000000000000003
aF0.93999999999999995
aF-0.029999999999999999
aI5126
aI-5387
aI-19127
aF-14.720000000000001
aF-267.72000000000003
aF203.31999999999999
aa(lp152
g3
ag4
aI0
aF18.535626173019409
aF0.20999999999999999
aF1.04
aF-0.080000000000000002
aI3121
aI-4921
aI-17938
aF155.47999999999999
aF-241.03999999999999
aF228.16
aa(lp153
g3
ag4
aI0
aF18.635188102722168
aF0.059999999999999998
aF0.93000000000000005
aF-0.12
aI1587
aI-1721
aI-7785
aF258.51999999999998
aF-191.36000000000001
aF230
aa(lp154
g3
ag4
aI0
aF18.771432161331177
aF-0.14000000000000001
aF0.88
aF-0.14000000000000001
aI1630
aI1847
aI3863
aF260.36000000000001
aF-182.16
aF233.68000000000001
aa(lp155
g3
ag4
aI0
aF18.935604095458984
aF-0.26000000000000001
aF0.83999999999999997
aF-0.14999999999999999
aI-646
aI1582
aI948
aF225.40000000000001
aF-186.75999999999999
aF248.40000000000001
aa(lp156
g3
ag4
aI0
aF19.035295009613037
aF-0.20999999999999999
aF0.87
aF-0.16
aI-1449
aI2559
aI5103
aF214.36000000000001
aF-195.96000000000001
aF246.56
aa(lp157
g3
ag4
aI0
aF19.135854005813599
aF0
aF0.93999999999999995
aF-0.17999999999999999
aI-4637
aI7026
aI17909
aF150.88
aF-225.40000000000001
aF244.72
aa(lp158
g3
ag4
aI0
aF19.260018110275269
aF0.25
aF1.04
aF-0.11
aI-7874
aI4190
aI26565
aF-33.119999999999997
aF-258.51999999999998
aF205.16
aa(lp159
g3
ag4
aI0
aF19.382678031921387
aF0.54000000000000004
aF1.0600000000000001
aF0.02
aI-10297
aI6662
aI24964
aF-237.36000000000001
aF-188.59999999999999
aF126.95999999999999
aa(lp160
g3
ag4
aI0
aF19.536082029342651
aF0.80000000000000004
aF0.76000000000000001
aF0.20999999999999999
aI-9951
aI168
aI21595
aF-372.60000000000002
aF-34.960000000000001
aF49.68
aa(lp161
g3
ag4
aI0
aF19.645216226577759
aF0.84999999999999998
aF0.54000000000000004
aF0.26000000000000001
aI-10088
aI-30
aI17775
aF-411.24000000000001
aF136.16
aF30.359999999999999
aa(lp162
g3
ag4
aI0
aF19.762565135955811
aF0.69999999999999996
aF0.070000000000000007
aF0.27000000000000002
aI-1100
aI-2074
aI896
aF-404.80000000000001
aF230.91999999999999
aF34.039999999999999
aa(lp163
g3
ag4
aI0
aF19.936046123504639
aF0.70999999999999996
aF-0.040000000000000001
aF0.10000000000000001
aI2257
aI471
aI-6825
aF-400.19999999999999
aF203.31999999999999
aF66.239999999999995
aa(lp164
g3
ag4
aI0
aF20.036128044128418
aF0.81999999999999995
aF-0.02
aF0.11
aI8318
aI1581
aI-16833
aF-400.19999999999999
aF94.760000000000005
aF52.439999999999998
aa(lp165
g3
ag4
aI0
aF20.136069059371948
aF0.89000000000000001
aF0.40000000000000002
aF0.059999999999999998
aI10878
aI-1018
aI-19823
aF-384.56
aF23
aF63.479999999999997
aa(lp166
g3
ag4
aI0
aF20.244852066040039
aF0.84999999999999998
aF0.71999999999999997
aF0.16
aI8207
aI-7618
aI-21153
aF-317.39999999999998
aF-116.84
aF83.719999999999999
aa(lp167
g3
ag4
aI0
aF20.392605066299438
aF0.64000000000000001
aF0.93999999999999995
aF0.059999999999999998
aI5736
aI-4008
aI-21325
aF-184
aF-218.03999999999999
aF158.24000000000001
aa(lp168
g3
ag4
aI0
aF20.535415172576904
aF0.41999999999999998
aF1.0600000000000001
aF-0.01
aI3965
aI-7210
aI-20504
aF-10.119999999999999
aF-264.04000000000002
aF206.08000000000001
aa(lp169
g3
ag4
aI0
aF20.643684148788452
aF0.20999999999999999
aF1
aF-0.059999999999999998
aI2749
aI-4884
aI-11970
aF162.84
aF-237.36000000000001
aF228.16
aa(lp170
g3
ag4
aI0
aF20.761228084564209
aF-0
aF0.91000000000000003
aF-0.10000000000000001
aI1271
aI1071
aI-388
aF237.36000000000001
aF-201.47999999999999
aF230.91999999999999
aa(lp171
g3
ag4
aI0
aF20.93590521812439
aF-0.12
aF0.88
aF-0.11
aI-697
aI3179
aI3784
aF223.56
aF-195.03999999999999
aF244.72
aa(lp172
g3
ag4
aI0
aF21.034947156906128
aF-0.070000000000000007
aF0.94999999999999996
aF-0.16
aI-2965
aI2822
aI10739
aF171.12
aF-218.96000000000001
aF240.12
aa(lp173
g3
ag4
aI0
aF21.134284019470215
aF0.13
aF1.02
aF-0.14000000000000001
aI-5491
aI5064
aI19561
aF50.600000000000001
aF-260.36000000000001
aF220.80000000000001
aa(lp174
g3
ag4
aI0
aF21.248617172241211
aF0.35999999999999999
aF1.0700000000000001
aF-0.080000000000000002
aI-5993
aI4343
aI23049
aF-133.40000000000001
aF-242.88
aF167.44
aa(lp175
g3
ag4
aI0
aF21.371208190917969
aF0.58999999999999997
aF0.96999999999999997
aF0.02
aI-8294
aI4500
aI22219
aF-293.48000000000002
aF-138
aF104.88
aa(lp176
g3
ag4
aI0
aF21.535580158233643
aF0.82999999999999996
aF0.64000000000000001
aF0.17999999999999999
aI-9281
aI2927
aI21228
aF-389.16000000000003
aF23
aF52.439999999999998
aa(lp177
g3
ag4
aI0
aF21.638873100280762
aF0.89000000000000001
aF0.46000000000000002
aF0.22
aI-10039
aI423
aI17329
aF-413.07999999999998
aF185.84
aF29.440000000000001
aa(lp178
g3
ag4
aI0
aF21.751239061355591
aF0.71999999999999997
aF0.059999999999999998
aF0.22
aI59
aI-2942
aI-6
aF-406.63999999999999
aF232.75999999999999
aF26.68
aa(lp179
g3
ag4
aI0
aF21.86014199256897
aF0.68999999999999995
aF-0.089999999999999997
aF0.14999999999999999
aI3094
aI968
aI-8064
aF-402.04000000000002
aF232.75999999999999
aF46
aa(lp180
g3
ag4
aI0
aF21.995061159133911
aF0.80000000000000004
aF-0.029999999999999999
aF0.14000000000000001
aI6962
aI3334
aI-16302
aF-409.39999999999998
aF143.52000000000001
aF37.719999999999999
aa(lp181
g3
ag4
aI0
aF22.134871006011963
aF0.82999999999999996
aF0.46000000000000002
aF0.14999999999999999
aI11760
aI-3275
aI-23327
aF-379.95999999999998
aF-12.880000000000001
aF46.920000000000002
aa(lp182
g3
ag4
aI0
aF22.236021041870117
aF0.76000000000000001
aF0.78000000000000003
aF0.20000000000000001
aI10022
aI-2253
aI-25521
aF-268.63999999999999
aF-176.63999999999999
aF97.519999999999996
aa(lp183
g3
ag4
aI0
aF22.373700141906738
aF0.59999999999999998
aF1.01
aF0.050000000000000003
aI7703
aI-3619
aI-21683
aF-92
aF-267.72000000000003
aF170.19999999999999
aa(lp184
g3
ag4
aI0
aF22.535452127456665
aF0.28000000000000003
aF1.0700000000000001
aF-0.029999999999999999
aI4575
aI-5850
aI-16569
aF85.560000000000002
aF-263.12
aF218.03999999999999
aa(lp185
g3
ag4
aI0
aF22.635534048080444
aF0.10000000000000001
aF0.93999999999999995
aF-0.11
aI3026
aI-2314
aI-8927
aF206.08000000000001
aF-213.44
aF241.03999999999999
aa(lp186
g3
ag4
aI0
aF22.743984222412109
aF-0.10000000000000001
aF0.87
aF-0.13
aI873
aI437
aI1900
aF236.44
aF-185.84
aF244.72
aa(lp187
g3
ag4
aI0
aF22.86781120300293
aF-0.22
aF0.85999999999999999
aF-0.14999999999999999
aI-1122
aI2234
aI3416
aF207
aF-202.40000000000001
aF248.40000000000001
aa(lp188
g3
ag4
aI0
aF23.035294055938721
aF-0.27000000000000002
aF0.89000000000000001
aF-0.16
aI-981
aI426
aI4199
aF176.63999999999999
aF-217.12
aF244.72
aa(lp189
g3
ag4
aI0
aF23.135158061981201
aF-0.14000000000000001
aF0.93999999999999995
aF-0.16
aI-1943
aI2930
aI10264
aF151.80000000000001
aF-230
aF243.80000000000001
aa(lp190
g3
ag4
aI0
aF23.235911130905151
aF0.14000000000000001
aF1
aF-0.14000000000000001
aI-5201
aI6286
aI19519
aF53.359999999999999
aF-250.24000000000001
aF230.91999999999999
aa(lp191
g3
ag4
aI0
aF23.350122213363647
aF0.44
aF1.01
aF-0.070000000000000007
aI-9065
aI9347
aI25661
aF-123.28
aF-240.12
aF185.84
aa(lp192
g3
ag4
aI0
aF23.490089178085327
aF0.67000000000000004
aF0.96999999999999997
aF0.080000000000000002
aI-11336
aI3675
aI23382
aF-303.60000000000002
aF-132.47999999999999
aF89.239999999999995
aa(lp193
g3
ag4
aI0
aF23.635914087295532
aF0.80000000000000004
aF0.68999999999999995
aF0.28000000000000003
aI-8749
aI2070
aI16570
aF-395.60000000000002
aF23.920000000000002
aF25.760000000000002
aa(lp194
g3
ag4
aI0
aF23.736354112625122
aF0.85999999999999999
aF0.34999999999999998
aF0.20999999999999999
aI-9082
aI53
aI13592
aF-414.92000000000002
aF155.47999999999999
aF17.48
aa(lp195
g3
ag4
aI0
aF23.853795051574707
aF0.90000000000000002
aF0.070000000000000007
aF0.20000000000000001
aI-3308
aI222
aI4077
aF-408.48000000000002
aF241.96000000000001
aF15.640000000000001
aa(lp196
g3
ag4
aI0
aF23.976315021514893
aF0.76000000000000001
aF-0.040000000000000001
aF0.23999999999999999
aI6037
aI-4257
aI-8848
aF-405.72000000000003
aF236.44
aF30.359999999999999
aa(lp197
g3
ag4
aI0
aF24.135165214538574
aF0.85999999999999999
aF0
aF0.20999999999999999
aI7236
aI1079
aI-14900
aF-412.16000000000003
aF138.91999999999999
aF27.600000000000001
aa(lp198
g3
ag4
aI0
aF24.235892057418823
aF0.93000000000000005
aF0.28999999999999998
aF0.16
aI9172
aI531
aI-19579
aF-379.95999999999998
aF-12.880000000000001
aF42.32
aa(lp199
g3
ag4
aI0
aF24.337645053863525
aF0.93000000000000005
aF0.56999999999999995
aF0.14000000000000001
aI9953
aI-3880
aI-21992
aF-284.27999999999997
aF-161
aF93.840000000000003
aa(lp200
g3
ag4
aI0
aF24.478838205337524
aF0.69999999999999996
aF0.88
aF0.080000000000000002
aI7906
aI-5958
aI-23553
aF-200.56
aF-218.03999999999999
aF135.24000000000001
aa(lp201
g3
ag4
aI0
aF24.636117219924927
aF0.5
aF1
aF-0.029999999999999999
aI6043
aI-4567
aI-20003
aF-18.399999999999999
aF-266.80000000000001
aF202.40000000000001
aa(lp202
g3
ag4
aI0
aF24.735124111175537
aF0.20999999999999999
aF0.95999999999999996
aF-0.070000000000000007
aI3435
aI-5619
aI-9079
aF138
aF-241.96000000000001
aF231.84
aa(lp203
g3
ag4
aI0
aF24.853991031646729
aF0
aF0.89000000000000001
aF-0.13
aI2206
aI636
aI-571
aF213.44
aF-203.31999999999999
aF240.12
aa(lp204
g3
ag4
aI0
aF24.967652082443237
aF-0.12
aF0.88
aF-0.14000000000000001
aI-743
aI4007
aI3409
aF207.91999999999999
aF-193.19999999999999
aF253
aa(lp205
g3
ag4
aI0
aF25.135065078735352
aF-0.070000000000000007
aF0.92000000000000004
aF-0.14999999999999999
aI-3840
aI1238
aI10977
aF153.63999999999999
aF-218.03999999999999
aF248.40000000000001
aa.